(dp1
S'output'
p2
S"<type 'exceptions.ValueError'> could not convert string to float: "
p3
sS'layer'
p4
S'/home/cpnogueira/web2py/applications/benchmarktool/controllers/default.py'
p5
sS'code'
p6
S'# -*- coding: utf-8 -*-\n# this file is released under public domain and you can use without limitations\n\n#########################################################################\n## This is a sample controller\n## - index is the default action of any application\n## - user is required for authentication and authorization\n## - download is for downloading files uploaded in the db (does streaming)\n## - call exposes all registered services (none by default)\n#########################################################################\nimport json\nimport requests\nfrom requests.auth import HTTPBasicAuth\n\ndef index():\n    """\n    example action using the internationalization operator T and flash\n    rendered by views/default/index.html or views/generic.html\n\n    if you need a simple wiki simply replace the two lines below with:\n    return auth.wiki()\n    """\n    response.flash = T("Welcome to web2py!")\n    return dict(message=T(\'Hello World\'))\n\n\ndef user():\n    """\n    exposes:\n    http://..../[app]/default/user/login\n    http://..../[app]/default/user/logout\n    http://..../[app]/default/user/register\n    http://..../[app]/default/user/profile\n    http://..../[app]/default/user/retrieve_password\n    http://..../[app]/default/user/change_password\n    http://..../[app]/default/user/manage_users (requires membership in\n    use @auth.requires_login()\n        @auth.requires_membership(\'group name\')\n        @auth.requires_permission(\'read\',\'table name\',record_id)\n    to decorate functions that need access control\n    """\n    return dict(form=auth())\n\n@cache.action()\ndef download():\n    """\n    allows downloading of uploaded files\n    http://..../[app]/default/download/[filename]\n    """\n    return response.download(request, db)\n\n\ndef call():\n    """\n    exposes services. for example:\n    http://..../[app]/default/call/jsonrpc\n    decorate with @services.jsonrpc the functions to expose\n    supports xml, json, xmlrpc, jsonrpc, amfrpc, rss, csv\n    """\n    return service()\n\n\n@auth.requires_signature()\ndef data():\n    """\n    http://..../[app]/default/data/tables\n    http://..../[app]/default/data/create/[table]\n    http://..../[app]/default/data/read/[table]/[id]\n    http://..../[app]/default/data/update/[table]/[id]\n    http://..../[app]/default/data/delete/[table]/[id]\n    http://..../[app]/default/data/select/[table]\n    http://..../[app]/default/data/search/[table]\n    but URLs must be signed, i.e. linked with\n      A(\'table\',_href=URL(\'data/tables\',user_signature=True))\n    or with the signed load operator\n      LOAD(\'default\',\'data.load\',args=\'tables\',ajax=True,user_signature=True)\n    """\n    return dict(form=crud())\n\n### DO NOT FORGET: enable autentication!\n@request.restful()\ndef api():\n    response.view = \'generic.\'+request.extension\n    def GET(*args,**vars):\n        patterns = [\n            "/benchmark_set[benchmark_set]",\n            "/benchmark_set[benchmark_set]/:field",\n            "/benchmark_set/{benchmark_set.name.startswith}",\n            "/benchmark_set/{benchmark_set.name}/:field",\n            "/scheduler_worker[scheduler_worker]",\n            "/scheduler_worker[scheduler_worker]/:field",\n            "/scheduler_worker/{scheduler_worker.status}",\n            "/scheduler_worker/{scheduler_worker.status}/:field",\n            "/scheduler_worker/{scheduler_worker.worker_name.startswith}",\n            "/scheduler_worker/{scheduler_worker.worker_name}/:field",\n            "/results[numeric_results]"\n            ]\n\n        parser = db.parse_as_rest(patterns,args,vars)\n        if parser.status == 200:\n            return dict(content=parser.response)\n        else:\n            raise HTTP(parser.status,parser.error)\n\n    def POST(table_name,**vars):\n        return db[table_name].validate_and_insert(**vars).id\n\n    def PUT(table_name,record_id,**vars):\n        return db(db[table_name]._id==record_id).update(**vars)\n\n    def DELETE(table_name,record_id):\n        return db(db[table_name]._id==record_id).delete()\n    return dict(GET=GET, POST=POST, PUT=PUT, DELETE=DELETE)\n\n@auth.requires_login()\ndef add_simulation_from_benchmark():\n    if not session.resources: session.resources = 0\n    session.resources+=1\n    teste = ""\n\n    """\n        Start new simulation from the benchmark list\n    """\n    " Get the names of all existing benchmarks "\n    search_str = "http://localhost:8000/benchmarktool/default/api/benchmark_set.json"\n    benchmark_row = json.loads(requests.get(search_str).text);\n\n    " Create a list with the benchmark names"\n    benchmarks = [benchmark_row[\'content\'][i][\'name\'] for i in range(len(benchmark_row[\'content\']))]\n\n    " Get the names of all active working nodes"\n    search_str = "http://localhost:8000/benchmarktool/default/api/scheduler_worker/active.json"\n    working_nodes_row = json.loads(requests.get(search_str).text);\n\n    " Create a list with all active working nodes names"\n    working_nd = [(working_nodes_row[\'content\'][i][\'id\'], working_nodes_row[\'content\'][i][\'worker_name\']) for i in range(len(working_nodes_row[\'content\']))]\n\n\n    " Create a form to add new simulation based on pre-determined benchmarks "\n    fields = [Field(\'benchmark_set\', requires=IS_IN_SET(benchmarks, zero=T(\'-- Select benchmark set --\'))),\n                  Field(\'start_level\',\'integer\',default=1, requires=IS_EXPR(\'int(value)>0\')),\n                  Field(\'final_level\',\'integer\',default=16, requires=IS_EXPR(\'int(value)>0\')),\n                  Field(\'reference_price\',\'double\',requires=IS_EXPR(\'float(value)>0\')),\n                  Field(\'price_precision\',\'double\',requires=IS_EXPR(\'float(value)>0\')),\n                  Field(\'available_resources\', \'string\', requires=IS_IN_SET(working_nd, multiple=True), widget=SQLFORM.widgets.checkboxes.widget)\n]\n    simulation_form=SQLFORM.factory(*fields)\n\n    " Validate the input data from the form "\n    if simulation_form.validate():\n        " Get all the fields of benchmark_set table which id corresponds to the selected one from UI  "\n        search_str = "http://localhost:8000/benchmarktool/default/api/benchmark_set/"+simulation_form.vars.benchmark_set+".json"\n        sel_benchmark_row = json.loads(requests.get(search_str).text);\n\n        market_parameters= sel_benchmark_row[\'content\'][0][\'mkt_parameters\']\n\n        option_parameters= sel_benchmark_row[\'content\'][0][\'opt_parameters\']\n\n        " Generates the payload to insert a new job register to the database "\n        payload_job = {\'market_parameters\': market_parameters , \'option_parameters\': option_parameters, \'username\': auth.user_id}\n        new_job =  json.loads(requests.post("http://localhost:8000/benchmarktool/default/api/job.json", data=payload_job).text);\n\n        " Add algorithm parameters "\n        payload_alg_param = {\'price_precision\': simulation_form.vars.price_precision, \'reference_price\': simulation_form.vars.reference_price, \'start_level\': simulation_form.vars.start_level, \'final_level\': simulation_form.vars.final_level}\n        new_alg_param = json.loads(requests.post("http://localhost:8000/benchmarktool/default/api/algorithm_parameters.json", data=payload_alg_param).text);\n\n        """\n        " Assign all the simulations to the selected working nodes "\n        for resource in range(len(working_nd)-1):\n            sufix = \'available_resources\'+str(resource+1)\n            if simulation_form.vars.sufix:\n                payload = {\'compute_server\': resource, \'alg_param\': new_alg_param.id, \'job_id\': new_job.id}\n                new_sim_param = requests.post("http://localhost:8000/benchmarktool/default/api/algorithm_parameters.json", data=payload)\n        """\n        """\n        if (new_job == 200):\n                " if it was successfuly added, then assign all the simulations to the selected working nodes "\n                for resource in range(len(simulation_form.vars.available_resources)):\n                    payload = {\'compute_server\': resource, \'alg_param\': new_alg_param.id, \'job_id\': new_job.id}\n                    new_sim_param = requests.post("http://application_host/default/api/algorithm_parameters.json", data=payload)\n                    if (new_sim !=200):\n                        "If there are any error, tell the user "\n                        response.flash = T(\'The simulation could not begin!\')\n                    else:\n                    response.flash = T(\'The parameters could not be added!\')\n        else:\n            response.flash = T(\'The task could not be started!\')\n    elif simulation_form.errors:\n            response.flash = T(\'Please check for errors on form!\')\n    else:\n        response.flash = T(\'Please fill the form\')\n    """\n    return dict(simulation_form=simulation_form,test_var=teste,toobar=response.toolbar())\n\nresponse._vars=response._caller(add_simulation_from_benchmark)\n'
p7
sS'snapshot'
p8
(dp9
S'exception'
p10
(dp11
S'__hash__'
p12
S"<method-wrapper '__hash__' of exceptions.ValueError object>"
p13
sS'__setattr__'
p14
S"<method-wrapper '__setattr__' of exceptions.ValueError object>"
p15
sS'__reduce_ex__'
p16
S'<built-in method __reduce_ex__ of exceptions.ValueError object>'
p17
sS'__getslice__'
p18
S"<method-wrapper '__getslice__' of exceptions.ValueError object>"
p19
sS'__getitem__'
p20
S"<method-wrapper '__getitem__' of exceptions.ValueError object>"
p21
sS'__setstate__'
p22
S'<built-in method __setstate__ of exceptions.ValueError object>'
p23
sS'args'
p24
S"('could not convert string to float: ',)"
p25
sS'__reduce__'
p26
S'<built-in method __reduce__ of exceptions.ValueError object>'
p27
sS'__str__'
p28
S"<method-wrapper '__str__' of exceptions.ValueError object>"
p29
sS'__format__'
p30
S'<built-in method __format__ of exceptions.ValueError object>'
p31
sS'__getattribute__'
p32
S"<method-wrapper '__getattribute__' of exceptions.ValueError object>"
p33
sS'__class__'
p34
S"<type 'exceptions.ValueError'>"
p35
sS'__unicode__'
p36
S'<built-in method __unicode__ of exceptions.ValueError object>'
p37
sS'__delattr__'
p38
S"<method-wrapper '__delattr__' of exceptions.ValueError object>"
p39
sS'__subclasshook__'
p40
S'<built-in method __subclasshook__ of type object>'
p41
sS'__repr__'
p42
S"<method-wrapper '__repr__' of exceptions.ValueError object>"
p43
sS'__dict__'
p44
S'{}'
p45
sS'__sizeof__'
p46
S'<built-in method __sizeof__ of exceptions.ValueError object>'
p47
sS'__doc__'
p48
S"'Inappropriate argument value (of correct type).'"
p49
sS'__init__'
p50
S"<method-wrapper '__init__' of exceptions.ValueError object>"
p51
sS'__new__'
p52
S'<built-in method __new__ of type object>'
p53
ssS'evalue'
p54
S'could not convert string to float: '
p55
sS'request'
p56
cgluon.html
XML_unpickle
p57
(S's\x9dz\x00\x00<div><table><tr><td style="font-weight:bold;vertical-align:top;">ajax</td><td style="vertical-align:top;">:</td><td><div>False</div></td></tr><tr><td style="font-weight:bold;vertical-align:top;">application</td><td style="vertical-align:top;">:</td><td><div>benchmarktool</div></td></tr><tr><td style="font-weight:bold;vertical-align:top;">args</td><td style="vertical-align:top;">:</td><td><div><table></table></div></td></tr><tr><td style="font-weight:bold;vertical-align:top;">cid</td><td style="vertical-align:top;">:</td><td><div>None</div></td></tr><tr><td style="font-weight:bold;vertical-align:top;">client</td><td style="vertical-align:top;">:</td><td><div>127.0.0.1</div></td></tr><tr><td style="font-weight:bold;vertical-align:top;">controller</td><td style="vertical-align:top;">:</td><td><div>default</div></td></tr><tr><td style="font-weight:bold;vertical-align:top;">cookies</td><td style="vertical-align:top;">:</td><td><div><table><tr><td style="font-weight:bold;vertical-align:top;">session_id_admin</td><td style="vertical-align:top;">:</td><td><div>127.0.0.1-16cae3b9-4831-4738-a9e6-2243159f95d8<table><tr><td style="font-weight:bold;vertical-align:top;">comment</td><td style="vertical-align:top;">:</td><td><div></div></td></tr><tr><td style="font-weight:bold;vertical-align:top;">domain</td><td style="vertical-align:top;">:</td><td><div></div></td></tr><tr><td style="font-weight:bold;vertical-align:top;">expires</td><td style="vertical-align:top;">:</td><td><div></div></td></tr><tr><td style="font-weight:bold;vertical-align:top;">httponly</td><td style="vertical-align:top;">:</td><td><div></div></td></tr><tr><td style="font-weight:bold;vertical-align:top;">max-age</td><td style="vertical-align:top;">:</td><td><div></div></td></tr><tr><td style="font-weight:bold;vertical-align:top;">path</td><td style="vertical-align:top;">:</td><td><div></div></td></tr><tr><td style="font-weight:bold;vertical-align:top;">secure</td><td style="vertical-align:top;">:</td><td><div></div></td></tr><tr><td style="font-weight:bold;vertical-align:top;">version</td><td style="vertical-align:top;">:</td><td><div></div></td></tr></table></div></td></tr><tr><td style="font-weight:bold;vertical-align:top;">session_id_benchmarktool</td><td style="vertical-align:top;">:</td><td><div>127.0.0.1-448e59db-5734-4e2b-8ef2-44b0f22639e0<table><tr><td style="font-weight:bold;vertical-align:top;">comment</td><td style="vertical-align:top;">:</td><td><div></div></td></tr><tr><td style="font-weight:bold;vertical-align:top;">domain</td><td style="vertical-align:top;">:</td><td><div></div></td></tr><tr><td style="font-weight:bold;vertical-align:top;">expires</td><td style="vertical-align:top;">:</td><td><div></div></td></tr><tr><td style="font-weight:bold;vertical-align:top;">httponly</td><td style="vertical-align:top;">:</td><td><div></div></td></tr><tr><td style="font-weight:bold;vertical-align:top;">max-age</td><td style="vertical-align:top;">:</td><td><div></div></td></tr><tr><td style="font-weight:bold;vertical-align:top;">path</td><td style="vertical-align:top;">:</td><td><div></div></td></tr><tr><td style="font-weight:bold;vertical-align:top;">secure</td><td style="vertical-align:top;">:</td><td><div></div></td></tr><tr><td style="font-weight:bold;vertical-align:top;">version</td><td style="vertical-align:top;">:</td><td><div></div></td></tr></table></div></td></tr><tr><td style="font-weight:bold;vertical-align:top;">session_id_clienttools</td><td style="vertical-align:top;">:</td><td><div>127.0.0.1-9c8ab4f6-760b-4858-9a2e-f54bfe02bd14<table><tr><td style="font-weight:bold;vertical-align:top;">comment</td><td style="vertical-align:top;">:</td><td><div></div></td></tr><tr><td style="font-weight:bold;vertical-align:top;">domain</td><td style="vertical-align:top;">:</td><td><div></div></td></tr><tr><td style="font-weight:bold;vertical-align:top;">expires</td><td style="vertical-align:top;">:</td><td><div></div></td></tr><tr><td style="font-weight:bold;vertical-align:top;">httponly</td><td style="vertical-align:top;">:</td><td><div></div></td></tr><tr><td style="font-weight:bold;vertical-align:top;">max-age</td><td style="vertical-align:top;">:</td><td><div></div></td></tr><tr><td style="font-weight:bold;vertical-align:top;">path</td><td style="vertical-align:top;">:</td><td><div></div></td></tr><tr><td style="font-weight:bold;vertical-align:top;">secure</td><td style="vertical-align:top;">:</td><td><div></div></td></tr><tr><td style="font-weight:bold;vertical-align:top;">version</td><td style="vertical-align:top;">:</td><td><div></div></td></tr></table></div></td></tr><tr><td style="font-weight:bold;vertical-align:top;">session_id_exemplosite</td><td style="vertical-align:top;">:</td><td><div>127.0.0.1-02ca5ba1-3d3e-4ec8-aec3-b596b34092b1<table><tr><td style="font-weight:bold;vertical-align:top;">comment</td><td style="vertical-align:top;">:</td><td><div></div></td></tr><tr><td style="font-weight:bold;vertical-align:top;">domain</td><td style="vertical-align:top;">:</td><td><div></div></td></tr><tr><td style="font-weight:bold;vertical-align:top;">expires</td><td style="vertical-align:top;">:</td><td><div></div></td></tr><tr><td style="font-weight:bold;vertical-align:top;">httponly</td><td style="vertical-align:top;">:</td><td><div></div></td></tr><tr><td style="font-weight:bold;vertical-align:top;">max-age</td><td style="vertical-align:top;">:</td><td><div></div></td></tr><tr><td style="font-weight:bold;vertical-align:top;">path</td><td style="vertical-align:top;">:</td><td><div></div></td></tr><tr><td style="font-weight:bold;vertical-align:top;">secure</td><td style="vertical-align:top;">:</td><td><div></div></td></tr><tr><td style="font-weight:bold;vertical-align:top;">version</td><td style="vertical-align:top;">:</td><td><div></div></td></tr></table></div></td></tr><tr><td style="font-weight:bold;vertical-align:top;">session_id_financewebpricer</td><td style="vertical-align:top;">:</td><td><div>127.0.0.1-507e945a-1db4-4b0a-be70-294913ee95fd<table><tr><td style="font-weight:bold;vertical-align:top;">comment</td><td style="vertical-align:top;">:</td><td><div></div></td></tr><tr><td style="font-weight:bold;vertical-align:top;">domain</td><td style="vertical-align:top;">:</td><td><div></div></td></tr><tr><td style="font-weight:bold;vertical-align:top;">expires</td><td style="vertical-align:top;">:</td><td><div></div></td></tr><tr><td style="font-weight:bold;vertical-align:top;">httponly</td><td style="vertical-align:top;">:</td><td><div></div></td></tr><tr><td style="font-weight:bold;vertical-align:top;">max-age</td><td style="vertical-align:top;">:</td><td><div></div></td></tr><tr><td style="font-weight:bold;vertical-align:top;">path</td><td style="vertical-align:top;">:</td><td><div></div></td></tr><tr><td style="font-weight:bold;vertical-align:top;">secure</td><td style="vertical-align:top;">:</td><td><div></div></td></tr><tr><td style="font-weight:bold;vertical-align:top;">version</td><td style="vertical-align:top;">:</td><td><div></div></td></tr></table></div></td></tr><tr><td style="font-weight:bold;vertical-align:top;">session_id_tcc</td><td style="vertical-align:top;">:</td><td><div>127.0.0.1-0f75708c-7eec-4e70-8a6b-07cd63fc6c18<table><tr><td style="font-weight:bold;vertical-align:top;">comment</td><td style="vertical-align:top;">:</td><td><div></div></td></tr><tr><td style="font-weight:bold;vertical-align:top;">domain</td><td style="vertical-align:top;">:</td><td><div></div></td></tr><tr><td style="font-weight:bold;vertical-align:top;">expires</td><td style="vertical-align:top;">:</td><td><div></div></td></tr><tr><td style="font-weight:bold;vertical-align:top;">httponly</td><td style="vertical-align:top;">:</td><td><div></div></td></tr><tr><td style="font-weight:bold;vertical-align:top;">max-age</td><td style="vertical-align:top;">:</td><td><div></div></td></tr><tr><td style="font-weight:bold;vertical-align:top;">path</td><td style="vertical-align:top;">:</td><td><div></div></td></tr><tr><td style="font-weight:bold;vertical-align:top;">secure</td><td style="vertical-align:top;">:</td><td><div></div></td></tr><tr><td style="font-weight:bold;vertical-align:top;">version</td><td style="vertical-align:top;">:</td><td><div></div></td></tr></table></div></td></tr><tr><td style="font-weight:bold;vertical-align:top;">session_id_webpricer</td><td style="vertical-align:top;">:</td><td><div>127.0.0.1-fcd0fd7b-a3b7-4f81-b321-19da55e2d724<table><tr><td style="font-weight:bold;vertical-align:top;">comment</td><td style="vertical-align:top;">:</td><td><div></div></td></tr><tr><td style="font-weight:bold;vertical-align:top;">domain</td><td style="vertical-align:top;">:</td><td><div></div></td></tr><tr><td style="font-weight:bold;vertical-align:top;">expires</td><td style="vertical-align:top;">:</td><td><div></div></td></tr><tr><td style="font-weight:bold;vertical-align:top;">httponly</td><td style="vertical-align:top;">:</td><td><div></div></td></tr><tr><td style="font-weight:bold;vertical-align:top;">max-age</td><td style="vertical-align:top;">:</td><td><div></div></td></tr><tr><td style="font-weight:bold;vertical-align:top;">path</td><td style="vertical-align:top;">:</td><td><div></div></td></tr><tr><td style="font-weight:bold;vertical-align:top;">secure</td><td style="vertical-align:top;">:</td><td><div></div></td></tr><tr><td style="font-weight:bold;vertical-align:top;">version</td><td style="vertical-align:top;">:</td><td><div></div></td></tr></table></div></td></tr><tr><td style="font-weight:bold;vertical-align:top;">session_id_welcome</td><td style="vertical-align:top;">:</td><td><div>127.0.0.1-13d73e6a-2621-49a2-8dc2-321cd8c25bb6<table><tr><td style="font-weight:bold;vertical-align:top;">comment</td><td style="vertical-align:top;">:</td><td><div></div></td></tr><tr><td style="font-weight:bold;vertical-align:top;">domain</td><td style="vertical-align:top;">:</td><td><div></div></td></tr><tr><td style="font-weight:bold;vertical-align:top;">expires</td><td style="vertical-align:top;">:</td><td><div></div></td></tr><tr><td style="font-weight:bold;vertical-align:top;">httponly</td><td style="vertical-align:top;">:</td><td><div></div></td></tr><tr><td style="font-weight:bold;vertical-align:top;">max-age</td><td style="vertical-align:top;">:</td><td><div></div></td></tr><tr><td style="font-weight:bold;vertical-align:top;">path</td><td style="vertical-align:top;">:</td><td><div></div></td></tr><tr><td style="font-weight:bold;vertical-align:top;">secure</td><td style="vertical-align:top;">:</td><td><div></div></td></tr><tr><td style="font-weight:bold;vertical-align:top;">version</td><td style="vertical-align:top;">:</td><td><div></div></td></tr></table></div></td></tr></table></div></td></tr><tr><td style="font-weight:bold;vertical-align:top;">env</td><td style="vertical-align:top;">:</td><td><div><table><tr><td style="font-weight:bold;vertical-align:top;">CONTENT_LENGTH</td><td style="vertical-align:top;">:</td><td><div>1183</div></td></tr><tr><td style="font-weight:bold;vertical-align:top;">CONTENT_TYPE</td><td style="vertical-align:top;">:</td><td><div>multipart/form-data; boundary=---------------------------11177416361037686776142941229</div></td></tr><tr><td style="font-weight:bold;vertical-align:top;">HTTP_ACCEPT</td><td style="vertical-align:top;">:</td><td><div>text/html,application/xhtml+xml,application/xml;q=0.9,*/*;q=0.8</div></td></tr><tr><td style="font-weight:bold;vertical-align:top;">HTTP_ACCEPT_ENCODING</td><td style="vertical-align:top;">:</td><td><div>gzip, deflate</div></td></tr><tr><td style="font-weight:bold;vertical-align:top;">HTTP_ACCEPT_LANGUAGE</td><td style="vertical-align:top;">:</td><td><div>en-US,en;q=0.5</div></td></tr><tr><td style="font-weight:bold;vertical-align:top;">HTTP_CONNECTION</td><td style="vertical-align:top;">:</td><td><div>keep-alive</div></td></tr><tr><td style="font-weight:bold;vertical-align:top;">HTTP_CONTENT_LENGTH</td><td style="vertical-align:top;">:</td><td><div>1183</div></td></tr><tr><td style="font-weight:bold;vertical-align:top;">HTTP_CONTENT_TYPE</td><td style="vertical-align:top;">:</td><td><div>multipart/form-data; boundary=---------------------------11177416361037686776142941229</div></td></tr><tr><td style="font-weight:bold;vertical-align:top;">HTTP_COOKIE</td><td style="vertical-align:top;">:</td><td><div>session_id_financewebpricer=127.0.0.1-507e945a-1db4-4b0a-be70-294913ee95fd; session_id_webpricer=127.0.0.1-fcd0fd7b-a3b7-4f81-b321-19da55e2d724; session_id_tcc=127.0.0.1-0f75708c-7eec-4e70-8a6b-07cd63fc6c18; session_id_benchmarktool=127.0.0.1-448e59db-5734-4e2b-8ef2-44b0f22639e0; session_id_exemplosite=127.0.0.1-02ca5ba1-3d3e-4ec8-aec3-b596b34092b1; session_id_clienttools=127.0.0.1-9c8ab4f6-760b-4858-9a2e-f54bfe02bd14; session_id_welcome=127.0.0.1-13d73e6a-2621-49a2-8dc2-321cd8c25bb6; session_id_admin=127.0.0.1-16cae3b9-4831-4738-a9e6-2243159f95d8</div></td></tr><tr><td style="font-weight:bold;vertical-align:top;">HTTP_HOST</td><td style="vertical-align:top;">:</td><td><div>127.0.0.1:8000</div></td></tr><tr><td style="font-weight:bold;vertical-align:top;">HTTP_REFERER</td><td style="vertical-align:top;">:</td><td><div>http://127.0.0.1:8000/benchmarktool/default/add_simulation_from_benchmark</div></td></tr><tr><td style="font-weight:bold;vertical-align:top;">HTTP_USER_AGENT</td><td style="vertical-align:top;">:</td><td><div>Mozilla/5.0 (X11; Ubuntu; Linux x86_64; rv:26.0) Gecko/20100101 Firefox/26.0</div></td></tr><tr><td style="font-weight:bold;vertical-align:top;">PATH_INFO</td><td style="vertical-align:top;">:</td><td><div>/benchmarktool/default/add_simulation_from_benchmark</div></td></tr><tr><td style="font-weight:bold;vertical-align:top;">QUERY_STRING</td><td style="vertical-align:top;">:</td><td><div></div></td></tr><tr><td style="font-weight:bold;vertical-align:top;">REMOTE_ADDR</td><td style="vertical-align:top;">:</td><td><div>127.0.0.1</div></td></tr><tr><td style="font-weight:bold;vertical-align:top;">REMOTE_PORT</td><td style="vertical-align:top;">:</td><td><div>46997</div></td></tr><tr><td style="font-weight:bold;vertical-align:top;">REQUEST_METHOD</td><td style="vertical-align:top;">:</td><td><div>POST</div></td></tr><tr><td style="font-weight:bold;vertical-align:top;">SCRIPT_NAME</td><td style="vertical-align:top;">:</td><td><div></div></td></tr><tr><td style="font-weight:bold;vertical-align:top;">SERVER_NAME</td><td style="vertical-align:top;">:</td><td><div>xD</div></td></tr><tr><td style="font-weight:bold;vertical-align:top;">SERVER_PORT</td><td style="vertical-align:top;">:</td><td><div>8000</div></td></tr><tr><td style="font-weight:bold;vertical-align:top;">SERVER_PROTOCOL</td><td style="vertical-align:top;">:</td><td><div>HTTP/1.1</div></td></tr><tr><td style="font-weight:bold;vertical-align:top;">SERVER_SOFTWARE</td><td style="vertical-align:top;">:</td><td><div>Rocket 1.2.6</div></td></tr><tr><td style="font-weight:bold;vertical-align:top;">app_folders</td><td style="vertical-align:top;">:</td><td><div>set([&#x27;/home/cpnogueira/web2py/applications/admin/&#x27;, &#x27;/home/cpnogueira/web2py/applications/welcome/&#x27;, &#x27;/home/cpnogueira/web2py/applications/benchmarktool/&#x27;])</div></td></tr><tr><td style="font-weight:bold;vertical-align:top;">applications_parent</td><td style="vertical-align:top;">:</td><td><div>/home/cpnogueira/web2py</div></td></tr><tr><td style="font-weight:bold;vertical-align:top;">cmd_args</td><td style="vertical-align:top;">:</td><td><div><table></table></div></td></tr><tr><td style="font-weight:bold;vertical-align:top;">cmd_options</td><td style="vertical-align:top;">:</td><td><div>&lt;Values at 0x2080998: {&#x27;verbose&#x27;: False, &#x27;ip&#x27;: &#x27;127.0.0.1&#x27;, &#x27;debuglevel&#x27;: 30, &#x27;with_scheduler&#x27;: False, &#x27;ips&#x27;: [&#x27;127.0.1.1&#x27;], &#x27;shutdown_timeout&#x27;: 5, &#x27;taskbar&#x27;: False, &#x27;with_coverage&#x27;: False, &#x27;port&#x27;: 8000, &#x27;maxthreads&#x27;: None, &#x27;softcron&#x27;: False, &#x27;server_name&#x27;: &#x27;xD&#x27;, &#x27;bpython&#x27;: False, &#x27;nogui&#x27;: False, &#x27;pid_filename&#x27;: &#x27;httpserver.pid&#x27;, &#x27;extcron&#x27;: False, &#x27;runcron&#x27;: False, &#x27;run_system_tests&#x27;: False, &#x27;test&#x27;: None, &#x27;folder&#x27;: &#x27;/home/cpnogueira/web2py&#x27;, &#x27;config&#x27;: &#x27;&#x27;, &#x27;minthreads&#x27;: None, &#x27;shell&#x27;: None, &#x27;run&#x27;: &#x27;&#x27;, &#x27;log_filename&#x27;: &#x27;httpserver.log&#x27;, &#x27;profiler_dir&#x27;: None, &#x27;args&#x27;: [&#x27;&#x27;], &#x27;socket_timeout&#x27;: 5, &#x27;ssl_ca_certificate&#x27;: None, &#x27;scheduler&#x27;: None, &#x27;interfaces&#x27;: None, &#x27;ssl_private_key&#x27;: &#x27;&#x27;, &#x27;scheduler_groups&#x27;: None, &#x27;password&#x27;: &#x27;&lt;ask&gt;&#x27;, &#x27;request_queue_size&#x27;: 5, &#x27;ssl_certificate&#x27;: &#x27;&#x27;, &#x27;cronjob&#x27;: False, &#x27;numthreads&#x27;: None, &#x27;quiet&#x27;: False, &#x27;import_models&#x27;: False, &#x27;timeout&#x27;: 10, &#x27;plain&#x27;: False, &#x27;nobanner&#x27;: False}&gt;</div></td></tr><tr><td style="font-weight:bold;vertical-align:top;">content_length</td><td style="vertical-align:top;">:</td><td><div>1183</div></td></tr><tr><td style="font-weight:bold;vertical-align:top;">content_type</td><td style="vertical-align:top;">:</td><td><div>multipart/form-data; boundary=---------------------------11177416361037686776142941229</div></td></tr><tr><td style="font-weight:bold;vertical-align:top;">db_sessions</td><td style="vertical-align:top;">:</td><td><div>set([])</div></td></tr><tr><td style="font-weight:bold;vertical-align:top;">debugging</td><td style="vertical-align:top;">:</td><td><div>True</div></td></tr><tr><td style="font-weight:bold;vertical-align:top;">gluon_parent</td><td style="vertical-align:top;">:</td><td><div>/home/cpnogueira/web2py</div></td></tr><tr><td style="font-weight:bold;vertical-align:top;">http_accept</td><td style="vertical-align:top;">:</td><td><div>text/html,application/xhtml+xml,application/xml;q=0.9,*/*;q=0.8</div></td></tr><tr><td style="font-weight:bold;vertical-align:top;">http_accept_encoding</td><td style="vertical-align:top;">:</td><td><div>gzip, deflate</div></td></tr><tr><td style="font-weight:bold;vertical-align:top;">http_accept_language</td><td style="vertical-align:top;">:</td><td><div>en-US,en;q=0.5</div></td></tr><tr><td style="font-weight:bold;vertical-align:top;">http_connection</td><td style="vertical-align:top;">:</td><td><div>keep-alive</div></td></tr><tr><td style="font-weight:bold;vertical-align:top;">http_content_length</td><td style="vertical-align:top;">:</td><td><div>1183</div></td></tr><tr><td style="font-weight:bold;vertical-align:top;">http_content_type</td><td style="vertical-align:top;">:</td><td><div>multipart/form-data; boundary=---------------------------11177416361037686776142941229</div></td></tr><tr><td style="font-weight:bold;vertical-align:top;">http_cookie</td><td style="vertical-align:top;">:</td><td><div>session_id_financewebpricer=127.0.0.1-507e945a-1db4-4b0a-be70-294913ee95fd; session_id_webpricer=127.0.0.1-fcd0fd7b-a3b7-4f81-b321-19da55e2d724; session_id_tcc=127.0.0.1-0f75708c-7eec-4e70-8a6b-07cd63fc6c18; session_id_benchmarktool=127.0.0.1-448e59db-5734-4e2b-8ef2-44b0f22639e0; session_id_exemplosite=127.0.0.1-02ca5ba1-3d3e-4ec8-aec3-b596b34092b1; session_id_clienttools=127.0.0.1-9c8ab4f6-760b-4858-9a2e-f54bfe02bd14; session_id_welcome=127.0.0.1-13d73e6a-2621-49a2-8dc2-321cd8c25bb6; session_id_admin=127.0.0.1-16cae3b9-4831-4738-a9e6-2243159f95d8</div></td></tr><tr><td style="font-weight:bold;vertical-align:top;">http_host</td><td style="vertical-align:top;">:</td><td><div>127.0.0.1:8000</div></td></tr><tr><td style="font-weight:bold;vertical-align:top;">http_referer</td><td style="vertical-align:top;">:</td><td><div>http://127.0.0.1:8000/benchmarktool/default/add_simulation_from_benchmark</div></td></tr><tr><td style="font-weight:bold;vertical-align:top;">http_user_agent</td><td style="vertical-align:top;">:</td><td><div>Mozilla/5.0 (X11; Ubuntu; Linux x86_64; rv:26.0) Gecko/20100101 Firefox/26.0</div></td></tr><tr><td style="font-weight:bold;vertical-align:top;">is_jython</td><td style="vertical-align:top;">:</td><td><div>False</div></td></tr><tr><td style="font-weight:bold;vertical-align:top;">is_pypy</td><td style="vertical-align:top;">:</td><td><div>False</div></td></tr><tr><td style="font-weight:bold;vertical-align:top;">is_source</td><td style="vertical-align:top;">:</td><td><div>True</div></td></tr><tr><td style="font-weight:bold;vertical-align:top;">local_hosts</td><td style="vertical-align:top;">:</td><td><div><table><tr><td><div>127.0.1.1</div></td></tr><tr><td><div>::1</div></td></tr><tr><td><div>xD</div></td></tr><tr><td><div>::ffff:127.0.0.1</div></td></tr><tr><td><div>127.0.0.1</div></td></tr></table></div></td></tr><tr><td style="font-weight:bold;vertical-align:top;">path_info</td><td style="vertical-align:top;">:</td><td><div>/benchmarktool/default/add_simulation_from_benchmark</div></td></tr><tr><td style="font-weight:bold;vertical-align:top;">query_string</td><td style="vertical-align:top;">:</td><td><div></div></td></tr><tr><td style="font-weight:bold;vertical-align:top;">remote_addr</td><td style="vertical-align:top;">:</td><td><div>127.0.0.1</div></td></tr><tr><td style="font-weight:bold;vertical-align:top;">remote_port</td><td style="vertical-align:top;">:</td><td><div>46997</div></td></tr><tr><td style="font-weight:bold;vertical-align:top;">request_method</td><td style="vertical-align:top;">:</td><td><div>POST</div></td></tr><tr><td style="font-weight:bold;vertical-align:top;">request_uri</td><td style="vertical-align:top;">:</td><td><div>/benchmarktool/default/add_simulation_from_benchmark</div></td></tr><tr><td style="font-weight:bold;vertical-align:top;">script_name</td><td style="vertical-align:top;">:</td><td><div></div></td></tr><tr><td style="font-weight:bold;vertical-align:top;">server_name</td><td style="vertical-align:top;">:</td><td><div>xD</div></td></tr><tr><td style="font-weight:bold;vertical-align:top;">server_port</td><td style="vertical-align:top;">:</td><td><div>8000</div></td></tr><tr><td style="font-weight:bold;vertical-align:top;">server_protocol</td><td style="vertical-align:top;">:</td><td><div>HTTP/1.1</div></td></tr><tr><td style="font-weight:bold;vertical-align:top;">server_software</td><td style="vertical-align:top;">:</td><td><div>Rocket 1.2.6</div></td></tr><tr><td style="font-weight:bold;vertical-align:top;">web2py_path</td><td style="vertical-align:top;">:</td><td><div>/home/cpnogueira/web2py</div></td></tr><tr><td style="font-weight:bold;vertical-align:top;">web2py_version</td><td style="vertical-align:top;">:</td><td><div>2.8.2-stable+timestamp.2013.11.28.13.54.07</div></td></tr><tr><td style="font-weight:bold;vertical-align:top;">wsgi.errors</td><td style="vertical-align:top;">:</td><td><div>&lt;open file &#x27;&lt;stderr&gt;&#x27;, mode &#x27;w&#x27; at 0x7f681b1711e0&gt;</div></td></tr><tr><td style="font-weight:bold;vertical-align:top;">wsgi.file_wrapper</td><td style="vertical-align:top;">:</td><td><div>&lt;class wsgiref.util.FileWrapper at 0x1ff9050&gt;</div></td></tr><tr><td style="font-weight:bold;vertical-align:top;">wsgi.input</td><td style="vertical-align:top;">:</td><td><div>&lt;socket._fileobject object at 0x7f67f4631cd0&gt;</div></td></tr><tr><td style="font-weight:bold;vertical-align:top;">wsgi.multiprocess</td><td style="vertical-align:top;">:</td><td><div>False</div></td></tr><tr><td style="font-weight:bold;vertical-align:top;">wsgi.multithread</td><td style="vertical-align:top;">:</td><td><div>True</div></td></tr><tr><td style="font-weight:bold;vertical-align:top;">wsgi.run_once</td><td style="vertical-align:top;">:</td><td><div>False</div></td></tr><tr><td style="font-weight:bold;vertical-align:top;">wsgi.url_scheme</td><td style="vertical-align:top;">:</td><td><div>http</div></td></tr><tr><td style="font-weight:bold;vertical-align:top;">wsgi.version</td><td style="vertical-align:top;">:</td><td><div><table><tr><td><div>1</div></td></tr><tr><td><div>0</div></td></tr></table></div></td></tr><tr><td style="font-weight:bold;vertical-align:top;">wsgi_errors</td><td style="vertical-align:top;">:</td><td><div>&lt;open file &#x27;&lt;stderr&gt;&#x27;, mode &#x27;w&#x27; at 0x7f681b1711e0&gt;</div></td></tr><tr><td style="font-weight:bold;vertical-align:top;">wsgi_file_wrapper</td><td style="vertical-align:top;">:</td><td><div>&lt;class wsgiref.util.FileWrapper at 0x1ff9050&gt;</div></td></tr><tr><td style="font-weight:bold;vertical-align:top;">wsgi_input</td><td style="vertical-align:top;">:</td><td><div>&lt;socket._fileobject object at 0x7f67f4631cd0&gt;</div></td></tr><tr><td style="font-weight:bold;vertical-align:top;">wsgi_multiprocess</td><td style="vertical-align:top;">:</td><td><div>False</div></td></tr><tr><td style="font-weight:bold;vertical-align:top;">wsgi_multithread</td><td style="vertical-align:top;">:</td><td><div>True</div></td></tr><tr><td style="font-weight:bold;vertical-align:top;">wsgi_run_once</td><td style="vertical-align:top;">:</td><td><div>False</div></td></tr><tr><td style="font-weight:bold;vertical-align:top;">wsgi_url_scheme</td><td style="vertical-align:top;">:</td><td><div>http</div></td></tr><tr><td style="font-weight:bold;vertical-align:top;">wsgi_version</td><td style="vertical-align:top;">:</td><td><div><table><tr><td><div>1</div></td></tr><tr><td><div>0</div></td></tr></table></div></td></tr></table></div></td></tr><tr><td style="font-weight:bold;vertical-align:top;">extension</td><td style="vertical-align:top;">:</td><td><div>html</div></td></tr><tr><td style="font-weight:bold;vertical-align:top;">folder</td><td style="vertical-align:top;">:</td><td><div>/home/cpnogueira/web2py/applications/benchmarktool/</div></td></tr><tr><td style="font-weight:bold;vertical-align:top;">function</td><td style="vertical-align:top;">:</td><td><div>add_simulation_from_benchmark</div></td></tr><tr><td style="font-weight:bold;vertical-align:top;">global_settings</td><td style="vertical-align:top;">:</td><td><div><table><tr><td style="font-weight:bold;vertical-align:top;">app_folders</td><td style="vertical-align:top;">:</td><td><div>set([&#x27;/home/cpnogueira/web2py/applications/admin/&#x27;, &#x27;/home/cpnogueira/web2py/applications/welcome/&#x27;, &#x27;/home/cpnogueira/web2py/applications/benchmarktool/&#x27;])</div></td></tr><tr><td style="font-weight:bold;vertical-align:top;">applications_parent</td><td style="vertical-align:top;">:</td><td><div>/home/cpnogueira/web2py</div></td></tr><tr><td style="font-weight:bold;vertical-align:top;">cmd_args</td><td style="vertical-align:top;">:</td><td><div><table></table></div></td></tr><tr><td style="font-weight:bold;vertical-align:top;">cmd_options</td><td style="vertical-align:top;">:</td><td><div>&lt;Values at 0x2080998: {&#x27;verbose&#x27;: False, &#x27;ip&#x27;: &#x27;127.0.0.1&#x27;, &#x27;debuglevel&#x27;: 30, &#x27;with_scheduler&#x27;: False, &#x27;ips&#x27;: [&#x27;127.0.1.1&#x27;], &#x27;shutdown_timeout&#x27;: 5, &#x27;taskbar&#x27;: False, &#x27;with_coverage&#x27;: False, &#x27;port&#x27;: 8000, &#x27;maxthreads&#x27;: None, &#x27;softcron&#x27;: False, &#x27;server_name&#x27;: &#x27;xD&#x27;, &#x27;bpython&#x27;: False, &#x27;nogui&#x27;: False, &#x27;pid_filename&#x27;: &#x27;httpserver.pid&#x27;, &#x27;extcron&#x27;: False, &#x27;runcron&#x27;: False, &#x27;run_system_tests&#x27;: False, &#x27;test&#x27;: None, &#x27;folder&#x27;: &#x27;/home/cpnogueira/web2py&#x27;, &#x27;config&#x27;: &#x27;&#x27;, &#x27;minthreads&#x27;: None, &#x27;shell&#x27;: None, &#x27;run&#x27;: &#x27;&#x27;, &#x27;log_filename&#x27;: &#x27;httpserver.log&#x27;, &#x27;profiler_dir&#x27;: None, &#x27;args&#x27;: [&#x27;&#x27;], &#x27;socket_timeout&#x27;: 5, &#x27;ssl_ca_certificate&#x27;: None, &#x27;scheduler&#x27;: None, &#x27;interfaces&#x27;: None, &#x27;ssl_private_key&#x27;: &#x27;&#x27;, &#x27;scheduler_groups&#x27;: None, &#x27;password&#x27;: &#x27;&lt;ask&gt;&#x27;, &#x27;request_queue_size&#x27;: 5, &#x27;ssl_certificate&#x27;: &#x27;&#x27;, &#x27;cronjob&#x27;: False, &#x27;numthreads&#x27;: None, &#x27;quiet&#x27;: False, &#x27;import_models&#x27;: False, &#x27;timeout&#x27;: 10, &#x27;plain&#x27;: False, &#x27;nobanner&#x27;: False}&gt;</div></td></tr><tr><td style="font-weight:bold;vertical-align:top;">db_sessions</td><td style="vertical-align:top;">:</td><td><div>set([])</div></td></tr><tr><td style="font-weight:bold;vertical-align:top;">debugging</td><td style="vertical-align:top;">:</td><td><div>True</div></td></tr><tr><td style="font-weight:bold;vertical-align:top;">gluon_parent</td><td style="vertical-align:top;">:</td><td><div>/home/cpnogueira/web2py</div></td></tr><tr><td style="font-weight:bold;vertical-align:top;">is_jython</td><td style="vertical-align:top;">:</td><td><div>False</div></td></tr><tr><td style="font-weight:bold;vertical-align:top;">is_pypy</td><td style="vertical-align:top;">:</td><td><div>False</div></td></tr><tr><td style="font-weight:bold;vertical-align:top;">is_source</td><td style="vertical-align:top;">:</td><td><div>True</div></td></tr><tr><td style="font-weight:bold;vertical-align:top;">local_hosts</td><td style="vertical-align:top;">:</td><td><div><table><tr><td><div>127.0.1.1</div></td></tr><tr><td><div>::1</div></td></tr><tr><td><div>xD</div></td></tr><tr><td><div>::ffff:127.0.0.1</div></td></tr><tr><td><div>127.0.0.1</div></td></tr></table></div></td></tr><tr><td style="font-weight:bold;vertical-align:top;">web2py_version</td><td style="vertical-align:top;">:</td><td><div>2.8.2-stable+timestamp.2013.11.28.13.54.07</div></td></tr></table></div></td></tr><tr><td style="font-weight:bold;vertical-align:top;">is_https</td><td style="vertical-align:top;">:</td><td><div>False</div></td></tr><tr><td style="font-weight:bold;vertical-align:top;">is_local</td><td style="vertical-align:top;">:</td><td><div>True</div></td></tr><tr><td style="font-weight:bold;vertical-align:top;">is_restful</td><td style="vertical-align:top;">:</td><td><div>False</div></td></tr><tr><td style="font-weight:bold;vertical-align:top;">now</td><td style="vertical-align:top;">:</td><td><div>datetime.datetime(2014, 8, 19, 19, 49, 56, 404783)</div></td></tr><tr><td style="font-weight:bold;vertical-align:top;">raw_args</td><td style="vertical-align:top;">:</td><td><div></div></td></tr><tr><td style="font-weight:bold;vertical-align:top;">raw_extension</td><td style="vertical-align:top;">:</td><td><div>None</div></td></tr><tr><td style="font-weight:bold;vertical-align:top;">url</td><td style="vertical-align:top;">:</td><td><div>/benchmarktool/default/add_simulation_from_benchmark</div></td></tr><tr><td style="font-weight:bold;vertical-align:top;">utcnow</td><td style="vertical-align:top;">:</td><td><div>datetime.datetime(2014, 8, 19, 17, 49, 56, 404801)</div></td></tr><tr><td style="font-weight:bold;vertical-align:top;">uuid</td><td style="vertical-align:top;">:</td><td><div>benchmarktool/127.0.0.1.2014-08-19.19-49-56.c67eb98e-1224-4b4c-a18f-e500888a1c6c</div></td></tr><tr><td style="font-weight:bold;vertical-align:top;">wsgi</td><td style="vertical-align:top;">:</td><td><div>&lt;gluon.main.LazyWSGI object at 0x7f67f42fb750&gt;</div></td></tr></table></div>'
tRp58
sS'frames'
p59
(lp60
(dp61
S'file'
p62
S'/home/cpnogueira/web2py/gluon/restricted.py'
p63
sS'dump'
p64
(dp65
S'environment'
p66
S"{'A': <class 'gluon.html.A'>, 'ANY_OF': <class 'gluon.validators.ANY_OF'>, 'Auth': <class 'gluon.tools.Auth'>, 'B': <class 'gluon.html.B'>, 'BEAUTIFY': <class 'gluon.html.BEAUTIFY'>, 'BODY': <class 'gluon.html.BODY'>, 'BR': <class 'gluon.html.BR'>, 'BUTTON': <class 'gluon.html.BUTTON'>, 'CAT': <class 'gluon.html.CAT'>, 'CENTER': <class 'gluon.html.CENTER'>, ...}"
p67
sS'ccode'
p68
S'<code object <module> at 0x7f67e081fe30, file "/...s/benchmarktool/controllers/default.py", line 11>'
p69
ssS'lnum'
p70
I217
sS'lines'
p71
(dp72
I212
S'    try:'
p73
sI213
S'        if isinstance(code, types.CodeType):'
p74
sI214
S'            ccode = code'
p75
sI215
S'        else:'
p76
sI216
S'            ccode = compile2(code, layer)'
p77
sI217
S'        exec ccode in environment'
p78
sI218
S'    except HTTP:'
p79
sI219
S'        raise'
p80
sI220
S'    except RestrictedError:'
p81
sI221
S'        # do not encapsulate (obfuscate) the original RestrictedError'
p82
ssS'call'
p83
S"(code='# -*- coding: utf-8 -*-\\n# this file is released ...=response._caller(add_simulation_from_benchmark)\\n', environment={'A': <class 'gluon.html.A'>, 'ANY_OF': <class 'gluon.validators.ANY_OF'>, 'Auth': <class 'gluon.tools.Auth'>, 'B': <class 'gluon.html.B'>, 'BEAUTIFY': <class 'gluon.html.BEAUTIFY'>, 'BODY': <class 'gluon.html.BODY'>, 'BR': <class 'gluon.html.BR'>, 'BUTTON': <class 'gluon.html.BUTTON'>, 'CAT': <class 'gluon.html.CAT'>, 'CENTER': <class 'gluon.html.CENTER'>, ...}, layer='/home/cpnogueira/web2py/applications/benchmarktool/controllers/default.py')"
p84
sS'func'
p85
S'restricted'
p86
sa(dp87
g62
S'/home/cpnogueira/web2py/applications/benchmarktool/controllers/default.py'
p88
sg64
(dp89
sg70
I195
sg71
(dp90
I192
S'    """'
p91
sI193
S'    return dict(simulation_form=simulation_form,test_var=teste,toobar=response.toolbar())'
p92
sI184
S'                    else:'
p93
sI185
S"                    response.flash = T('The parameters could not be added!')"
p94
sI186
S'        else:'
p95
sI187
S"            response.flash = T('The task could not be started!')"
p96
sI188
S'    elif simulation_form.errors:'
p97
sI189
S"            response.flash = T('Please check for errors on form!')"
p98
sI190
S'    else:'
p99
sI191
S"        response.flash = T('Please fill the form')"
p100
ssg83
S'()'
p101
sg85
S'<module>'
p102
sa(dp103
g62
S'/home/cpnogueira/web2py/gluon/globals.py'
p104
sg64
(dp105
S'self'
p106
S'undefined'
p107
sS'f'
S'<function add_simulation_from_benchmark>'
p108
ssg70
I372
sg71
(dp109
I367
S'        self.menu = []             # used by the default view layout'
p110
sI368
S'        self.files = []            # used by web2py_ajax.html'
p111
sI369
S'        self.generic_patterns = []  # patterns to allow generic views'
p112
sI370
S"        self.delimiters = ('{{', '}}')"
p113
sI371
S'        self._vars = None'
p114
sI372
S'        self._caller = lambda f: f()'
p115
sI373
S'        self._view_environment = None'
p116
sI374
S'        self._custom_commit = None'
p117
sI375
S'        self._custom_rollback = None'
p118
sI376
S''
ssg83
S'(f=<function add_simulation_from_benchmark>)'
p119
sg85
S'<lambda>'
p120
sa(dp121
g62
S'/home/cpnogueira/web2py/gluon/tools.py'
p122
sg64
(dp123
S'action'
p124
S'<function add_simulation_from_benchmark>'
p125
sS'a'
S'()'
p126
sS'b'
g45
ssg70
I3239
sg71
(dp127
I3234
S'                    flag = condition'
p128
sI3235
S'                if not flag:'
p129
sI3236
S'                    current.session.flash = self.messages.access_denied'
p130
sI3237
S'                    return call_or_redirect('
p131
sI3238
S'                        self.settings.on_failed_authorization)'
p132
sI3239
S'                return action(*a, **b)'
p133
sI3240
S'            f.__doc__ = action.__doc__'
p134
sI3241
S'            f.__name__ = action.__name__'
p135
sI3242
S'            f.__dict__.update(action.__dict__)'
p136
sI3243
S'            return f'
p137
ssg83
S'(*a=(), **b={})'
p138
sg85
S'f'
sa(dp139
g62
S'/home/cpnogueira/web2py/applications/benchmarktool/controllers/default.py'
p140
sg64
(dp141
S'simulation_form.validate'
p142
S'<bound method SQLFORM.validate of <gluon.sqlhtml.SQLFORM object>>'
p143
sS'simulation_form'
p144
S'<gluon.sqlhtml.SQLFORM object>'
p145
ssg70
I150
sg71
(dp146
I145
S"                  Field('available_resources', 'string', requires=IS_IN_SET(working_nd, multiple=True), widget=SQLFORM.widgets.checkboxes.widget)"
p147
sI146
S']'
sI147
S'    simulation_form=SQLFORM.factory(*fields)'
p148
sI148
S''
sI149
S'    " Validate the input data from the form "'
p149
sI150
S'    if simulation_form.validate():'
p150
sI151
S'        " Get all the fields of benchmark_set table which id corresponds to the selected one from UI  "'
p151
sI152
S'        search_str = "http://localhost:8000/benchmarktool/default/api/benchmark_set/"+simulation_form.vars.benchmark_set+".json"'
p152
sI153
S'        sel_benchmark_row = json.loads(requests.get(search_str).text);'
p153
sI154
S''
ssg83
S'()'
p154
sg85
S'add_simulation_from_benchmark'
p155
sa(dp156
g62
S'/home/cpnogueira/web2py/gluon/html.py'
p157
sg64
(dp158
S'self'
p159
S'<gluon.sqlhtml.SQLFORM object>'
p160
sS'self.accepts'
p161
S'<bound method SQLFORM.accepts of <gluon.sqlhtml.SQLFORM object>>'
p162
sS'kwargs'
p163
S"{'dbio': False, 'request_vars': <Storage {'available_resources': ['1', '2'], 're...9-80524931b162', '_formname': 'no_table/create'}>, 'session': <Storage {'last_query': 'db.simulation.id>0', '_...-00bc-4aee-a168-268d07e33622'], 'resources': 55}>}"
p164
ssg70
I2154
sg71
(dp165
I2149
S"        for key in ('message_onsuccess', 'message_onfailure', 'onsuccess',"
p166
sI2150
S"                    'onfailure', 'next', 'message_onchange', 'onchange'):"
p167
sI2151
S'            if key in kwargs:'
p168
sI2152
S'                del kwargs[key]'
p169
sI2153
S''
sI2154
S'        if self.accepts(**kwargs):'
p170
sI2155
S"            if onsuccess == 'flash':"
p171
sI2156
S'                if next:'
p172
sI2157
S'                    current.session.flash = message_onsuccess'
p173
sI2158
S'                else:'
p174
ssg83
S"(self=<gluon.sqlhtml.SQLFORM object>, **kwargs={'dbio': False, 'request_vars': <Storage {'available_resources': ['1', '2'], 're...9-80524931b162', '_formname': 'no_table/create'}>, 'session': <Storage {'last_query': 'db.simulation.id>0', '_...-00bc-4aee-a168-268d07e33622'], 'resources': 55}>})"
p175
sg85
S'validate'
p176
sa(dp177
g62
S'/home/cpnogueira/web2py/gluon/sqlhtml.py'
p178
sg64
(dp179
S'kwargs'
p180
g45
ssg70
I1375
sg71
(dp181
I1376
S'        )'
p182
sI1377
S''
sI1378
S'        self.deleted = \\'
p183
sI1379
S'            request_vars.get(self.FIELDNAME_REQUEST_DELETE, False)'
p184
sI1370
S'            session,'
p185
sI1371
S'            formname,'
p186
sI1372
S'            keepvalues,'
p187
sI1373
S'            onvalidation,'
p188
sI1374
S'            hideerror=hideerror,'
p189
sI1375
S'            **kwargs'
p190
ssg83
S"(self=<gluon.sqlhtml.SQLFORM object>, request_vars=<Storage {'available_resources': ['1', '2'], 're...9-80524931b162', '_formname': 'no_table/create'}>, session=<Storage {'last_query': 'db.simulation.id>0', '_...-00bc-4aee-a168-268d07e33622'], 'resources': 55}>, formname='no_table/create', keepvalues=False, onvalidation=None, dbio=False, hideerror=False, detect_record_change=False, **kwargs={})"
p191
sg85
S'accepts'
p192
sa(dp193
g62
S'/home/cpnogueira/web2py/gluon/html.py'
p194
sg64
(dp195
S'status'
p196
S'True'
p197
sS'self'
p198
S'<gluon.sqlhtml.SQLFORM object>'
p199
sS'self._traverse'
p200
S'<bound method SQLFORM._traverse of <gluon.sqlhtml.SQLFORM object>>'
p201
sS'hideerror'
p202
S'False'
p203
ssg70
I2035
sg71
(dp204
I2030
S'        if status and session:'
p205
sI2031
S'            # check if editing a record that has been modified by the server'
p206
sI2032
S"            if hasattr(self, 'record_hash') and self.record_hash != formkey:"
p207
sI2033
S'                status = False'
p208
sI2034
S'                self.record_changed = changed = True'
p209
sI2035
S'        status = self._traverse(status, hideerror)'
p210
sI2036
S'        status = self.assert_status(status, request_vars)'
p211
sI2037
S'        if onvalidation:'
p212
sI2038
S'            if isinstance(onvalidation, dict):'
p213
sI2039
S"                onsuccess = onvalidation.get('onsuccess', None)"
p214
ssg83
S"(self=<gluon.sqlhtml.SQLFORM object>, request_vars=<Storage {'available_resources': ['1', '2'], 're...9c-4a9e-8179-80524931b162', 'benchmark_set': ''}>, session=<Storage {'last_query': 'db.simulation.id>0', '_...-00bc-4aee-a168-268d07e33622'], 'resources': 55}>, formname='no_table/create', keepvalues=False, onvalidation=None, hideerror=False, **kwargs={})"
p215
sg85
g192
sa(dp216
g62
S'/home/cpnogueira/web2py/gluon/html.py'
p217
sg64
(dp218
S'status'
p219
g197
sS'newstatus'
p220
g197
sS'c'
S'<gluon.html.TABLE object>'
p221
sS'hideerror'
p222
g203
sS'c._traverse'
p223
S'<bound method TABLE._traverse of <gluon.html.TABLE object>>'
p224
ssg70
I846
sg71
(dp225
I841
S'                c.latest = self.latest'
p226
sI842
S'                c.session = self.session'
p227
sI843
S'                c.formname = self.formname'
p228
sI844
S"                if not c.attributes.get('hideerror'):"
p229
sI845
S"                    c['hideerror'] = hideerror or self.attributes.get('hideerror')"
p230
sI846
S'                newstatus = c._traverse(status, hideerror) and newstatus'
p231
sI847
S''
sI848
S'        # for input, textarea, select, option'
p232
sI849
S"        # deal with 'value' and 'validation'"
p233
sI850
S''
ssg83
S'(self=<gluon.sqlhtml.SQLFORM object>, status=True, hideerror=False)'
p234
sg85
S'_traverse'
p235
sa(dp236
g62
S'/home/cpnogueira/web2py/gluon/html.py'
p237
sg64
(dp238
S'status'
p239
g197
sS'newstatus'
p240
g203
sS'c'
S'<gluon.html.TR object>'
p241
sS'hideerror'
p242
g203
sS'c._traverse'
p243
S'<bound method TR._traverse of <gluon.html.TR object>>'
p244
ssg70
I846
sg71
(dp245
I841
S'                c.latest = self.latest'
p246
sI842
S'                c.session = self.session'
p247
sI843
S'                c.formname = self.formname'
p248
sI844
S"                if not c.attributes.get('hideerror'):"
p249
sI845
S"                    c['hideerror'] = hideerror or self.attributes.get('hideerror')"
p250
sI846
S'                newstatus = c._traverse(status, hideerror) and newstatus'
p251
sI847
S''
sI848
S'        # for input, textarea, select, option'
p252
sI849
S"        # deal with 'value' and 'validation'"
p253
sI850
S''
ssg83
S'(self=<gluon.html.TABLE object>, status=True, hideerror=False)'
p254
sg85
g235
sa(dp255
g62
S'/home/cpnogueira/web2py/gluon/html.py'
p256
sg64
(dp257
S'status'
p258
g197
sS'newstatus'
p259
g197
sS'c'
S'<gluon.html.TD object>'
p260
sS'hideerror'
p261
g203
sS'c._traverse'
p262
S'<bound method TD._traverse of <gluon.html.TD object>>'
p263
ssg70
I846
sg71
(dp264
I841
S'                c.latest = self.latest'
p265
sI842
S'                c.session = self.session'
p266
sI843
S'                c.formname = self.formname'
p267
sI844
S"                if not c.attributes.get('hideerror'):"
p268
sI845
S"                    c['hideerror'] = hideerror or self.attributes.get('hideerror')"
p269
sI846
S'                newstatus = c._traverse(status, hideerror) and newstatus'
p270
sI847
S''
sI848
S'        # for input, textarea, select, option'
p271
sI849
S"        # deal with 'value' and 'validation'"
p272
sI850
S''
ssg83
S'(self=<gluon.html.TR object>, status=True, hideerror=False)'
p273
sg85
g235
sa(dp274
g62
S'/home/cpnogueira/web2py/gluon/html.py'
p275
sg64
(dp276
S'status'
p277
g197
sS'newstatus'
p278
g197
sS'c'
S'<gluon.html.INPUT object>'
p279
sS'hideerror'
p280
g203
sS'c._traverse'
p281
S'<bound method INPUT._traverse of <gluon.html.INPUT object>>'
p282
ssg70
I846
sg71
(dp283
I841
S'                c.latest = self.latest'
p284
sI842
S'                c.session = self.session'
p285
sI843
S'                c.formname = self.formname'
p286
sI844
S"                if not c.attributes.get('hideerror'):"
p287
sI845
S"                    c['hideerror'] = hideerror or self.attributes.get('hideerror')"
p288
sI846
S'                newstatus = c._traverse(status, hideerror) and newstatus'
p289
sI847
S''
sI848
S'        # for input, textarea, select, option'
p290
sI849
S"        # deal with 'value' and 'validation'"
p291
sI850
S''
ssg83
S'(self=<gluon.html.TD object>, status=True, hideerror=False)'
p292
sg85
g235
sa(dp293
g62
S'/home/cpnogueira/web2py/gluon/html.py'
p294
sg64
(dp295
S'newstatus'
p296
g197
sS'self'
p297
S'<gluon.html.INPUT object>'
p298
sS'self._validate'
p299
S'<bound method INPUT._validate of <gluon.html.INPUT object>>'
p300
ssg70
I853
sg71
(dp301
I848
S'        # for input, textarea, select, option'
p302
sI849
S"        # deal with 'value' and 'validation'"
p303
sI850
S''
sI851
S"        name = self['_name']"
p304
sI852
S'        if newstatus:'
p305
sI853
S'            newstatus = self._validate()'
p306
sI854
S'            self._postprocessing()'
p307
sI855
S"        elif 'old_value' in self.attributes:"
p308
sI856
S"            self['value'] = self['old_value']"
p309
sI857
S'            self._postprocessing()'
p310
ssg83
S'(self=<gluon.html.INPUT object>, status=True, hideerror=False)'
p311
sg85
g235
sa(dp312
g62
S'/home/cpnogueira/web2py/gluon/html.py'
p313
sg64
(dp314
S'errors'
p315
g107
sS'value'
p316
S"''"
p317
sS'validator'
p318
S'<gluon.validators.IS_EXPR object>'
p319
ssg70
I1780
sg71
(dp320
I1775
S"        requires = self['requires']"
p321
sI1776
S'        if requires:'
p322
sI1777
S'            if not isinstance(requires, (list, tuple)):'
p323
sI1778
S'                requires = [requires]'
p324
sI1779
S'            for validator in requires:'
p325
sI1780
S'                (value, errors) = validator(value)'
p326
sI1781
S'                if not errors is None:'
p327
sI1782
S'                    self.vars[name] = value'
p328
sI1783
S'                    self.errors[name] = errors'
p329
sI1784
S'                    break'
p330
ssg83
S'(self=<gluon.html.INPUT object>)'
p331
sg85
S'_validate'
p332
sa(dp333
g62
S'/home/cpnogueira/web2py/gluon/validators.py'
p334
sg64
(dp335
S'self'
p336
S'<gluon.validators.IS_EXPR object>'
p337
sS'self.expression'
p338
S"'float(value)>0'"
p339
sS'self.environment'
p340
S"{'__builtins__': {'ArithmeticError': <type 'exceptions.ArithmeticError'>, 'AssertionError': <type 'exceptions.AssertionError'>, 'AttributeError': <type 'exceptions.AttributeError'>, 'BaseException': <type 'exceptions.BaseException'>, 'BufferError': <type 'exceptions.BufferError'>, 'BytesWarning': <type 'exceptions.BytesWarning'>, 'DeprecationWarning': <type 'exceptions.DeprecationWarning'>, 'EOFError': <type 'exceptions.EOFError'>, 'Ellipsis': Ellipsis, 'EnvironmentError': <type 'exceptions.EnvironmentError'>, ...}, 'value': ''}"
p341
ssg70
I261
sg71
(dp342
I256
S'    def __call__(self, value):'
p343
sI257
S'        if callable(self.expression):'
p344
sI258
S'            return (value, self.expression(value))'
p345
sI259
S'        # for backward compatibility'
p346
sI260
S'        self.environment.update(value=value)'
p347
sI261
S"        exec '__ret__=' + self.expression in self.environment"
p348
sI262
S"        if self.environment['__ret__']:"
p349
sI263
S'            return (value, None)'
p350
sI264
S'        return (value, translate(self.error_message))'
p351
sI265
S''
ssg83
S"(self=<gluon.validators.IS_EXPR object>, value='')"
p352
sg85
S'__call__'
p353
sa(dp354
g62
S'/home/cpnogueira/web2py/<string>'
p355
sg64
(dp356
sg70
I1
sg71
(dp357
sg83
S'()'
p358
sg85
g102
sasS'pyver'
p359
S'Python 2.7.4: /usr/bin/python (prefix: /usr)'
p360
sS'session'
p361
g57
(S's\xa8\x0b\x00\x00<div><table><tr><td style="font-weight:bold;vertical-align:top;">auth</td><td style="vertical-align:top;">:</td><td><div><table><tr><td style="font-weight:bold;vertical-align:top;">expiration</td><td style="vertical-align:top;">:</td><td><div>3600</div></td></tr><tr><td style="font-weight:bold;vertical-align:top;">hmac_key</td><td style="vertical-align:top;">:</td><td><div>ba4aa776-4f6a-4f55-8eb2-60a1ff2e4d44</div></td></tr><tr><td style="font-weight:bold;vertical-align:top;">last_visit</td><td style="vertical-align:top;">:</td><td><div>datetime.datetime(2014, 8, 19, 19, 44, 15, 786918)</div></td></tr><tr><td style="font-weight:bold;vertical-align:top;">remember</td><td style="vertical-align:top;">:</td><td><div>False</div></td></tr><tr><td style="font-weight:bold;vertical-align:top;">user</td><td style="vertical-align:top;">:</td><td><div><table><tr><td style="font-weight:bold;vertical-align:top;">email</td><td style="vertical-align:top;">:</td><td><div>carolpnog@gmail.com</div></td></tr><tr><td style="font-weight:bold;vertical-align:top;">first_name</td><td style="vertical-align:top;">:</td><td><div>Carolina</div></td></tr><tr><td style="font-weight:bold;vertical-align:top;">id</td><td style="vertical-align:top;">:</td><td><div>3L</div></td></tr><tr><td style="font-weight:bold;vertical-align:top;">last_name</td><td style="vertical-align:top;">:</td><td><div>Nogueira</div></td></tr><tr><td style="font-weight:bold;vertical-align:top;">registration_id</td><td style="vertical-align:top;">:</td><td><div></div></td></tr><tr><td style="font-weight:bold;vertical-align:top;">registration_key</td><td style="vertical-align:top;">:</td><td><div></div></td></tr><tr><td style="font-weight:bold;vertical-align:top;">reset_password_key</td><td style="vertical-align:top;">:</td><td><div></div></td></tr><tr><td style="font-weight:bold;vertical-align:top;">username</td><td style="vertical-align:top;">:</td><td><div>cpnogueira</div></td></tr></table></div></td></tr><tr><td style="font-weight:bold;vertical-align:top;">user_groups</td><td style="vertical-align:top;">:</td><td><div><table><tr><td style="font-weight:bold;vertical-align:top;">3</td><td style="vertical-align:top;">:</td><td><div>user_3</div></td></tr></table></div></td></tr></table></div></td></tr><tr><td style="font-weight:bold;vertical-align:top;">flash</td><td style="vertical-align:top;">:</td><td><div>None</div></td></tr><tr><td style="font-weight:bold;vertical-align:top;">last_orderby</td><td style="vertical-align:top;">:</td><td><div>None</div></td></tr><tr><td style="font-weight:bold;vertical-align:top;">last_query</td><td style="vertical-align:top;">:</td><td><div>db.simulation.id&gt;0</div></td></tr><tr><td style="font-weight:bold;vertical-align:top;">resources</td><td style="vertical-align:top;">:</td><td><div>55</div></td></tr><tr><td style="font-weight:bold;vertical-align:top;">simulation_number</td><td style="vertical-align:top;">:</td><td><div>6</div></td></tr></table></div>'
tRp362
sS'etype'
p363
S"<type 'exceptions.ValueError'>"
p364
sS'date'
p365
S'Tue Aug 19 19:49:56 2014'
p366
sS'response'
p367
g57
(S'sl\x1f\x00\x00<div><table><tr><td style="font-weight:bold;vertical-align:top;">body</td><td style="vertical-align:top;">:</td><td><div>&lt;cStringIO.StringO object at 0x7f680014f6f8&gt;</div></td></tr><tr><td style="font-weight:bold;vertical-align:top;">cookies</td><td style="vertical-align:top;">:</td><td><div><table><tr><td style="font-weight:bold;vertical-align:top;">session_id_benchmarktool</td><td style="vertical-align:top;">:</td><td><div>127.0.0.1-448e59db-5734-4e2b-8ef2-44b0f22639e0<table><tr><td style="font-weight:bold;vertical-align:top;">comment</td><td style="vertical-align:top;">:</td><td><div></div></td></tr><tr><td style="font-weight:bold;vertical-align:top;">domain</td><td style="vertical-align:top;">:</td><td><div></div></td></tr><tr><td style="font-weight:bold;vertical-align:top;">expires</td><td style="vertical-align:top;">:</td><td><div></div></td></tr><tr><td style="font-weight:bold;vertical-align:top;">httponly</td><td style="vertical-align:top;">:</td><td><div></div></td></tr><tr><td style="font-weight:bold;vertical-align:top;">max-age</td><td style="vertical-align:top;">:</td><td><div></div></td></tr><tr><td style="font-weight:bold;vertical-align:top;">path</td><td style="vertical-align:top;">:</td><td><div>/</div></td></tr><tr><td style="font-weight:bold;vertical-align:top;">secure</td><td style="vertical-align:top;">:</td><td><div></div></td></tr><tr><td style="font-weight:bold;vertical-align:top;">version</td><td style="vertical-align:top;">:</td><td><div></div></td></tr></table></div></td></tr></table></div></td></tr><tr><td style="font-weight:bold;vertical-align:top;">delimiters</td><td style="vertical-align:top;">:</td><td><div><table><tr><td><div>{{</div></td></tr><tr><td><div>}}</div></td></tr></table></div></td></tr><tr><td style="font-weight:bold;vertical-align:top;">files</td><td style="vertical-align:top;">:</td><td><div><table></table></div></td></tr><tr><td style="font-weight:bold;vertical-align:top;">flash</td><td style="vertical-align:top;">:</td><td><div></div></td></tr><tr><td style="font-weight:bold;vertical-align:top;">generic_patterns</td><td style="vertical-align:top;">:</td><td><div><table><tr><td><div>*</div></td></tr></table></div></td></tr><tr><td style="font-weight:bold;vertical-align:top;">google_analytics_id</td><td style="vertical-align:top;">:</td><td><div>None</div></td></tr><tr><td style="font-weight:bold;vertical-align:top;">headers</td><td style="vertical-align:top;">:</td><td><div><table><tr><td style="font-weight:bold;vertical-align:top;">X-Powered-By</td><td style="vertical-align:top;">:</td><td><div>web2py</div></td></tr></table></div></td></tr><tr><td style="font-weight:bold;vertical-align:top;">logo</td><td style="vertical-align:top;">:</td><td><div><a class="brand" data-w2p_disable_with="default" href="http://www.web2py.com/"><b>web<span>2</span>py</b>&trade;&nbsp;</a></div></td></tr><tr><td style="font-weight:bold;vertical-align:top;">menu</td><td style="vertical-align:top;">:</td><td><div><table><tr><td><div><table><tr><td><div>Home</div></td></tr><tr><td><div>False</div></td></tr><tr><td><div>/benchmarktool/default/index</div></td></tr><tr><td><div><table></table></div></td></tr></table></div></td></tr><tr><td><div><table><tr><td><div>Simulation</div></td></tr><tr><td><div>True</div></td></tr><tr><td><div>/benchmarktool/default/add_simulation_from_benchmark</div></td></tr><tr><td><div><table></table></div></td></tr></table></div></td></tr><tr><td><div><table><tr><td><div>Results</div></td></tr><tr><td><div>False</div></td></tr><tr><td><div>/benchmarktool/default/results</div></td></tr><tr><td><div><table></table></div></td></tr></table></div></td></tr><tr><td><div><table><tr><td><div>Administrative</div></td></tr><tr><td><div>False</div></td></tr><tr><td><div>/benchmarktool/default/admin</div></td></tr></table></div></td></tr></table></div></td></tr><tr><td style="font-weight:bold;vertical-align:top;">meta</td><td style="vertical-align:top;">:</td><td><div><table><tr><td style="font-weight:bold;vertical-align:top;">author</td><td style="vertical-align:top;">:</td><td><div>Your Name &lt;you@example.com&gt;</div></td></tr><tr><td style="font-weight:bold;vertical-align:top;">description</td><td style="vertical-align:top;">:</td><td><div>a cool new app</div></td></tr><tr><td style="font-weight:bold;vertical-align:top;">generator</td><td style="vertical-align:top;">:</td><td><div>Web2py Web Framework</div></td></tr><tr><td style="font-weight:bold;vertical-align:top;">keywords</td><td style="vertical-align:top;">:</td><td><div>web2py, python, framework</div></td></tr></table></div></td></tr><tr><td style="font-weight:bold;vertical-align:top;">models_to_run</td><td style="vertical-align:top;">:</td><td><div><table><tr><td><div>^\\w+\\.py$</div></td></tr><tr><td><div>^default/\\w+\\.py$</div></td></tr><tr><td><div>^default/add_simulation_from_benchmark/\\w+\\.py$</div></td></tr></table></div></td></tr><tr><td style="font-weight:bold;vertical-align:top;">postprocessing</td><td style="vertical-align:top;">:</td><td><div><table></table></div></td></tr><tr><td style="font-weight:bold;vertical-align:top;">session_client</td><td style="vertical-align:top;">:</td><td><div>127.0.0.1</div></td></tr><tr><td style="font-weight:bold;vertical-align:top;">session_cookie_compression_level</td><td style="vertical-align:top;">:</td><td><div>None</div></td></tr><tr><td style="font-weight:bold;vertical-align:top;">session_cookie_expires</td><td style="vertical-align:top;">:</td><td><div>None</div></td></tr><tr><td style="font-weight:bold;vertical-align:top;">session_cookie_key</td><td style="vertical-align:top;">:</td><td><div>None</div></td></tr><tr><td style="font-weight:bold;vertical-align:top;">session_data_name</td><td style="vertical-align:top;">:</td><td><div>session_data_benchmarktool</div></td></tr><tr><td style="font-weight:bold;vertical-align:top;">session_file</td><td style="vertical-align:top;">:</td><td><div>&lt;open file &#x27;/home/cpnogueira/web2py/applications/benchmarktool/sessions/127.0.0.1-448e59db-5734-4e2b-8ef2-44b0f22639e0&#x27;, mode &#x27;rb+&#x27; at 0x7f67fc78fb70&gt;</div></td></tr><tr><td style="font-weight:bold;vertical-align:top;">session_filename</td><td style="vertical-align:top;">:</td><td><div>/home/cpnogueira/web2py/applications/benchmarktool/sessions/127.0.0.1-448e59db-5734-4e2b-8ef2-44b0f22639e0</div></td></tr><tr><td style="font-weight:bold;vertical-align:top;">session_hash</td><td style="vertical-align:top;">:</td><td><div>8cd6e860eaa3a4ddaecfc562ff1f7ea9</div></td></tr><tr><td style="font-weight:bold;vertical-align:top;">session_id</td><td style="vertical-align:top;">:</td><td><div>127.0.0.1-448e59db-5734-4e2b-8ef2-44b0f22639e0</div></td></tr><tr><td style="font-weight:bold;vertical-align:top;">session_id_name</td><td style="vertical-align:top;">:</td><td><div>session_id_benchmarktool</div></td></tr><tr><td style="font-weight:bold;vertical-align:top;">session_locked</td><td style="vertical-align:top;">:</td><td><div>True</div></td></tr><tr><td style="font-weight:bold;vertical-align:top;">session_masterapp</td><td style="vertical-align:top;">:</td><td><div>benchmarktool</div></td></tr><tr><td style="font-weight:bold;vertical-align:top;">session_new</td><td style="vertical-align:top;">:</td><td><div>False</div></td></tr><tr><td style="font-weight:bold;vertical-align:top;">session_storage_type</td><td style="vertical-align:top;">:</td><td><div>file</div></td></tr><tr><td style="font-weight:bold;vertical-align:top;">status</td><td style="vertical-align:top;">:</td><td><div>200</div></td></tr><tr><td style="font-weight:bold;vertical-align:top;">subtitle</td><td style="vertical-align:top;">:</td><td><div></div></td></tr><tr><td style="font-weight:bold;vertical-align:top;">title</td><td style="vertical-align:top;">:</td><td><div>Benchmarktool</div></td></tr><tr><td style="font-weight:bold;vertical-align:top;">view</td><td style="vertical-align:top;">:</td><td><div>default/add_simulation_from_benchmark.html</div></td></tr></table></div>'
tRp368
sS'locals'
p369
(dp370
S'__builtins__'
p371
S"{'ArithmeticError': <type 'exceptions.ArithmeticError'>, 'AssertionError': <type 'exceptions.AssertionError'>, 'AttributeError': <type 'exceptions.AttributeError'>, 'BaseException': <type 'exceptions.BaseException'>, 'BufferError': <type 'exceptions.BufferError'>, 'BytesWarning': <type 'exceptions.BytesWarning'>, 'DeprecationWarning': <type 'exceptions.DeprecationWarning'>, 'EOFError': <type 'exceptions.EOFError'>, 'Ellipsis': Ellipsis, 'EnvironmentError': <type 'exceptions.EnvironmentError'>, ...}"
p372
sS'value'
p373
S"''"
p374
sssS'traceback'
p375
S'Traceback (most recent call last):\n  File "/home/cpnogueira/web2py/gluon/restricted.py", line 217, in restricted\n    exec ccode in environment\n  File "/home/cpnogueira/web2py/applications/benchmarktool/controllers/default.py", line 195, in <module>\n  File "/home/cpnogueira/web2py/gluon/globals.py", line 372, in <lambda>\n    self._caller = lambda f: f()\n  File "/home/cpnogueira/web2py/gluon/tools.py", line 3239, in f\n    return action(*a, **b)\n  File "/home/cpnogueira/web2py/applications/benchmarktool/controllers/default.py", line 150, in add_simulation_from_benchmark\n    if simulation_form.validate():\n  File "/home/cpnogueira/web2py/gluon/html.py", line 2154, in validate\n    if self.accepts(**kwargs):\n  File "/home/cpnogueira/web2py/gluon/sqlhtml.py", line 1375, in accepts\n    **kwargs\n  File "/home/cpnogueira/web2py/gluon/html.py", line 2035, in accepts\n    status = self._traverse(status, hideerror)\n  File "/home/cpnogueira/web2py/gluon/html.py", line 846, in _traverse\n    newstatus = c._traverse(status, hideerror) and newstatus\n  File "/home/cpnogueira/web2py/gluon/html.py", line 846, in _traverse\n    newstatus = c._traverse(status, hideerror) and newstatus\n  File "/home/cpnogueira/web2py/gluon/html.py", line 846, in _traverse\n    newstatus = c._traverse(status, hideerror) and newstatus\n  File "/home/cpnogueira/web2py/gluon/html.py", line 846, in _traverse\n    newstatus = c._traverse(status, hideerror) and newstatus\n  File "/home/cpnogueira/web2py/gluon/html.py", line 853, in _traverse\n    newstatus = self._validate()\n  File "/home/cpnogueira/web2py/gluon/html.py", line 1780, in _validate\n    (value, errors) = validator(value)\n  File "/home/cpnogueira/web2py/gluon/validators.py", line 261, in __call__\n    exec \'__ret__=\' + self.expression in self.environment\n  File "<string>", line 1, in <module>\nValueError: could not convert string to float: \n'
p376
s.