(dp1
S'output'
p2
S'missing "pass" in view'
p3
sS'layer'
p4
S'ParserContainer'
p5
sS'code'
p6
S'response.write(\'<!DOCTYPE html PUBLIC "-//W3C//DTD XHTML 1.0 Strict//EN" "http://www.w3.org/TR/xhtml1/DTD/xhtml1-strict.dtd">\\n<!--\\n\\nDesign by Free CSS Templates\\nhttp://www.freecsstemplates.org\\nReleased for free under a Creative Commons Attribution 2.5 License\\n\\nTitle      : Puzzled\\nVersion    : 1.0\\nReleased   : 20080706\\nDescription: A wide two-column design suitable for blogs and small websites.\\n\\n-->\\n<html xmlns="http://www.w3.org/1999/xhtml">\\n <head>\\n  <title>\\n   \', escape=False)\nresponse.write(response.title or request.application)\nresponse.write(\'\\n  </title>\\n  \', escape=False)\nresponse.files.append(URL(request.application,\'static\',\'plugin_layouts/layouts/FCTPuzzled/default.css\'))\nresponse.write(\'\\n  \', escape=False)\nresponse.files.append(URL(\'static\',\'plugin_layouts/superfish.js\'))\nresponse.write(\'\\n  \', escape=False)\nresponse.files.append(URL(\'static\',\'css/bootstrap.min.css\'))\nresponse.write(\'\\n  \', escape=False)\nresponse.write(\'<script type="text/javascript"><!--\\n    // These variables are used by the web2py_ajax_init function in web2py_ajax.js (which is loaded below).\\n    var w2p_ajax_confirm_message = "\', escape=False)\nresponse.write(T(\'Are you sure you want to delete this object?\'))\nresponse.write(\'";\\n    var w2p_ajax_disable_with_message = "\', escape=False)\nresponse.write(T(\'Working...\'))\nresponse.write(\'";\\n    var w2p_ajax_date_format = "\', escape=False)\nresponse.write(T(\'%Y-%m-%d\'))\nresponse.write(\'";\\n    var w2p_ajax_datetime_format = "\', escape=False)\nresponse.write(T(\'%Y-%m-%d %H:%M:%S\'))\nresponse.write(\'";\\n    var ajax_error_500 = \\\'\', escape=False)\nresponse.write(T.M(\'An error occured, please [[reload %s]] the page\') % URL(args=request.args, vars=request.get_vars))\nresponse.write("\'\\n    //--></script>\\n", escape=False)\nresponse.files.insert(0,URL(\'static\',\'js/jquery.js\'))\nresponse.files.insert(1,URL(\'static\',\'css/calendar.css\'))\nresponse.files.insert(2,URL(\'static\',\'js/calendar.js\'))\nresponse.files.insert(3,URL(\'static\',\'js/web2py.js\'))\nresponse.include_meta()\nresponse.include_files()\nresponse.write(\'\\n\', escape=False)\nresponse.write(\'\\n  <style>\\nul.web2py-menu-vertical { width: 150px; position: relative; top:1em; left:1em;  z-index:30; border:0; margin:0; padding: 0; list-style: none; text-decoration: none;}\\nul.web2py-menu-vertical li { margin:0; padding:0; border:0; width: 150px; background: black; text-align:left;}\\nul.web2py-menu-vertical li a { margin:0; padding: 1px 3px 1px 3px; border:0; width: 144px; color: white; font-size:12px;}\\ndiv.flash { position: fixed; float: right; padding: 10px; top: 10px; right: 30px; opacity: 0.75; margin: 10px 10px 10px 10px; text-align: center; clear: both; color: #fff; font-size: 11pt; text-align: center; vertical-align: middle; cursor: pointer; background: black; border: 2px solid #fff; -moz-border-radius: 5px; -webkit-border-radius: 5px; z-index: 2; }\\ndiv.error { background-color: red; color: white; padding: 3px; }\\n.auth_navbar { text-align:right; z-index:20; position: absolute; top: 2px; right:30px; border:0; padding:0 }\\n  </style>\\n </head>\\n <body>\\n  <!-- start header -->\\n  <!-- \', escape=False)\ntry:\n    response.write(auth.navbar(action=URL(\'default\',\'user\')))\nexcept:pass\nresponse.write(\' -->\\n\\n  <!-- start header -->\\n  <div id="header">\\n   <div id="logo">\\n       \', escape=False)\nresponse.write(A(IMG(_src=URL(\'static/images\',\'TUreduced.jpg\'), _alt="Logo der Technischen Universit\xc3\xa4t Kaiserslautern"),_href="http://www.uni-kl.de/"))\nresponse.write(\'\\n   </div>\\n   <div id="menu">\\n    \', escape=False)\nresponse.write(MENU(response.menu,_class=\'web2py-menu\',li_active="current_page_item"))\nresponse.write(\'\\n    <script>\\n        jQuery(document).ready(function(){jQuery(\\\'ul.web2py-menu\\\').superfish({delay:400});});\\n    </script>\\n   </div>\\n  </div>\\n  <!-- end header -->\\n  <div id="headerbg">\\n   <p class="text1">\\n   </p>\\n  </div>\\n  <!-- start page -->\\n  <div id="page">\\n   <!-- start content -->\\n   <div id="content">\\n    <div class="flash">\', escape=False)\nresponse.write(response.flash or \'\')\nresponse.write(\'</div>\\n    \', escape=False)\nresponse.write(\'\\n<form action="#" enctype="multipart/form-data" method="post">\\n<ul>\\n  <li>Benchmark Set:  \\n      <select name="benchmark_set">\\n          \', escape=False)\nfor bench in benchmarks:\n    response.write(OPTION(bench, _value=bench))\n    response.write(\'\\n      </select></li>\\n</ul>\\n  <input type="submit" />\\n  <input type="hidden" name="_formname" value="test" />\\n</form>\\n\\n\\n\\n<INPUT type="button" value="add new"\\n       onclick="ajax(\\\'\', escape=False)\n    response.write(URL(r=request,f=\'add_simulation_from_benchmark\'))\n    response.write(\'\\\',\\\'target\\\');"/>\\n\\n\', escape=False)\n    response.write(BEAUTIFY(simulation_form.vars))\n    response.write(\'\\n\', escape=False)\n    response.write(toobar)\n    response.write(\'\\n\', escape=False)\n    response.write(test_var)\n    response.write(\'\\n\', escape=False)\n    response.write(\'\\n   </div>\\n   <!-- end content -->\\n   <!-- start sidebar -->\\n  <!-- <div id="sidebar">\\n    <ul>\\n     <li>\\n      <h2>\\n       Lorem Ipsum\\n      </h2>\\n      <ul>\\n       <li>\\n        <a href="#">\\n         Fusce dui neque fringilla\\n        </a>\\n       </li>\\n       <li>\\n        <a href="#">\\n         Eget tempor eget nonummy\\n        </a>\\n       </li>\\n       <li>\\n        <a href="#">\\n         Magna lacus bibendum mauris\\n        </a>\\n       </li>\\n       <li>\\n        <a href="#">\\n         Nec metus sed donec\\n        </a>\\n       </li>\\n       <li>\\n        <a href="#">\\n         Magna lacus bibendum mauris\\n        </a>\\n       </li>\\n       <li>\\n        <a href="#">\\n         Velit semper nisi molestie\\n        </a>\\n       </li>\\n       <li>\\n        <a href="#">\\n         Eget tempor eget nonummy\\n        </a>\\n       </li>\\n      </ul>\\n     </li>\\n     <li>\\n      <h2>\\n       Lorem Ipsum\\n      </h2>\\n      <ul>\\n       <li>\\n        <a href="#">\\n         Fusce dui neque fringilla\\n        </a>\\n       </li>\\n       <li>\\n        <a href="#">\\n         Eget tempor eget nonummy\\n        </a>\\n       </li>\\n       <li>\\n        <a href="#">\\n         Magna lacus bibendum mauris\\n        </a>\\n       </li>\\n       <li>\\n        <a href="#">\\n         Nec metus sed donec\\n        </a>\\n       </li>\\n       <li>\\n        <a href="#">\\n         Magna lacus bibendum mauris\\n        </a>\\n       </li>\\n       <li>\\n        <a href="#">\\n         Velit semper nisi molestie\\n        </a>\\n       </li>\\n       <li>\\n        <a href="#">\\n         Eget tempor eget nonummy\\n        </a>\\n       </li>\\n      </ul>\\n     </li>\\n     <li>\\n      <h2>\\n       Volutpat Dolore\\n      </h2>\\n      <ul>\\n       <li>\\n        <a href="#">\\n         Eget tempor eget nonummy\\n        </a>\\n       </li>\\n       <li>\\n        <a href="#">\\n         Magna lacus bibendum mauris\\n        </a>\\n       </li>\\n       <li>\\n        <a href="#">\\n         Magna lacus bibendum mauris\\n        </a>\\n       </li>\\n       <li>\\n        <a href="#">\\n         Velit semper nisi molestie\\n        </a>\\n       </li>\\n       <li>\\n        <a href="#">\\n         Nec metus sed donec\\n        </a>\\n       </li>\\n       <li>\\n        <a href="#">\\n         Magna lacus bibendum mauris\\n        </a>\\n       </li>\\n       <li>\\n        <a href="#">\\n         Fusce dui neque fringilla\\n        </a>\\n       </li>\\n      </ul>\\n     </li>\\n     <li>\\n      <h2>\\n       Magna Bibendum\\n      </h2>\\n      <ul>\\n       <li>\\n        <a href="#">\\n         Nec metus sed donec\\n        </a>\\n       </li>\\n       <li>\\n        <a href="#">\\n         Magna lacus bibendum mauris\\n        </a>\\n       </li>\\n       <li>\\n        <a href="#">\\n         Velit semper nisi molestie\\n        </a>\\n       </li>\\n       <li>\\n        <a href="#">\\n         Eget tempor eget nonummy\\n        </a>\\n       </li>\\n       <li>\\n        <a href="#">\\n         Nec metus sed donec\\n        </a>\\n       </li>\\n       <li>\\n        <a href="#">\\n         Magna lacus bibendum mauris\\n        </a>\\n       </li>\\n       <li>\\n        <a href="#">\\n         Velit semper nisi molestie\\n        </a>\\n       </li>\\n      </ul>\\n     </li>\\n    </ul>\\n    <div style="clear: both;">\\n     &nbsp;\\n    </div>\\n   </div> -->\\n   <!-- end sidebar -->\\n  </div>\\n  <!-- end page -->\\n  <div id="footer">\\n   <p id="legal">\\n    &copy;2007 Puzzled. All Rights Reserved.  Designed by\\n    <a href="http://www.freecsstemplates.org/">\\n     Free CSS Templates\\n    </a>\\n   </p>\\n   <p id="links">\\n    <a href="#">\\n     Privacy\\n    </a>\\n    &nbsp;&nbsp;&nbsp; |&nbsp;&nbsp;&nbsp;\\n    <a href="#">\\n     Terms\\n    </a>\\n    &nbsp;&nbsp;&nbsp;|&nbsp;&nbsp;&nbsp;\\n    <a href="http://validator.w3.org/check/referer" title="This page validates as XHTML 1.0 Transitional">\\n     <abbr title="eXtensible HyperText Markup Language">\\n      XHTML\\n     </abbr>\\n    </a>\\n    &nbsp;&nbsp;|&nbsp;&nbsp;&nbsp;\\n    <a href="http://jigsaw.w3.org/css-validator/check/referer" title="This page validates as CSS">\\n     <abbr title="Cascading Style Sheets">\\n      CSS\\n     </abbr>\\n    </a>\\n   </p>\\n  </div>\\n </body>\\n</html>\\n\', escape=False)'
p7
sS'snapshot'
p8
(dp9
S'exception'
p10
(dp11
S'__module__'
p12
S"'gluon.rocket'"
p13
sS'__getslice__'
p14
S"<method-wrapper '__getslice__' of SocketTimeout object>"
p15
sS'__str__'
p16
S"<method-wrapper '__str__' of SocketTimeout object>"
p17
sS'__reduce__'
p18
S'<built-in method __reduce__ of SocketTimeout object>'
p19
sS'__dict__'
p20
S'{}'
p21
sS'__sizeof__'
p22
S'<built-in method __sizeof__ of SocketTimeout object>'
p23
sS'__weakref__'
p24
S'None'
p25
sS'__init__'
p26
S"<method-wrapper '__init__' of SocketTimeout object>"
p27
sS'__setattr__'
p28
S"<method-wrapper '__setattr__' of SocketTimeout object>"
p29
sS'__reduce_ex__'
p30
S'<built-in method __reduce_ex__ of SocketTimeout object>'
p31
sS'__new__'
p32
S'<built-in method __new__ of type object>'
p33
sS'__format__'
p34
S'<built-in method __format__ of SocketTimeout object>'
p35
sS'__class__'
p36
S"<class 'gluon.rocket.SocketTimeout'>"
p37
sS'__doc__'
p38
S"'Exception for when a socket times out between requests.'"
p39
sS'__getitem__'
p40
S"<method-wrapper '__getitem__' of SocketTimeout object>"
p41
sS'__setstate__'
p42
S'<built-in method __setstate__ of SocketTimeout object>'
p43
sS'__getattribute__'
p44
S"<method-wrapper '__getattribute__' of SocketTimeout object>"
p45
sS'args'
p46
S"('Socket timed out before request.',)"
p47
sS'__subclasshook__'
p48
S'<built-in method __subclasshook__ of type object>'
p49
sS'__unicode__'
p50
S'<built-in method __unicode__ of SocketTimeout object>'
p51
sS'__delattr__'
p52
S"<method-wrapper '__delattr__' of SocketTimeout object>"
p53
sS'__repr__'
p54
S"<method-wrapper '__repr__' of SocketTimeout object>"
p55
sS'__hash__'
p56
S"<method-wrapper '__hash__' of SocketTimeout object>"
p57
ssS'evalue'
p58
S'Socket timed out before request.'
p59
sS'frames'
p60
(lp61
(dp62
S'file'
p63
S'/home/cpnogueira/web2py/gluon/rocket.py'
p64
sS'dump'
p65
(dp66
S'self'
p67
S'<WSGIWorker(Thread-6, started daemon 140084586215168)>'
p68
sS'conn'
p69
S'<gluon.rocket.Connection object>'
p70
sS'self.run_app'
p71
S'<bound method WSGIWorker.run_app of <WSGIWorker(Thread-6, started daemon 140084586215168)>>'
p72
ssS'lnum'
p73
I1337
sS'lines'
p74
(dp75
I1332
S'            # Enter connection serve loop'
p76
sI1333
S'            while True:'
p77
sI1334
S'                if __debug__:'
p78
sI1335
S"                    self.err_log.debug('Serving a request')"
p79
sI1336
S'                try:'
p80
sI1337
S'                    self.run_app(conn)'
p81
sI1338
S'                except:'
p82
sI1339
S'                    exc = sys.exc_info()'
p83
sI1340
S'                    handled = self._handleError(*exc)'
p84
sI1341
S'                    if handled:'
p85
ssS'call'
p86
S'(self=<WSGIWorker(Thread-6, started daemon 140084586215168)>)'
p87
sS'func'
p88
S'run'
p89
sa(dp90
g63
S'/home/cpnogueira/web2py/gluon/rocket.py'
p91
sg65
(dp92
S'self'
p93
S'<WSGIWorker(Thread-6, started daemon 140084586215168)>'
p94
sS'self.environ'
p95
S"{'HTTP_ACCEPT': 'text/html,application/xhtml+xml,application/xml;q=0.9,*/*;q=0.8', 'HTTP_ACCEPT_ENCODING': 'gzip, deflate', 'HTTP_ACCEPT_LANGUAGE': 'en-US,en;q=0.5', 'HTTP_CONNECTION': 'keep-alive', 'HTTP_COOKIE': 'session_id_financewebpricer=127.0.0.1-507e945a-1...in=127.0.0.1-16cae3b9-4831-4738-a9e6-2243159f95d8', 'HTTP_HOST': '127.0.0.1:8000', 'HTTP_USER_AGENT': 'Mozilla/5.0 (X11; Ubuntu; Linux x86_64; rv:26.0) Gecko/20100101 Firefox/26.0', 'PATH_INFO': '/benchmarktool/default/add_simulation_from_benchmark', 'QUERY_STRING': '', 'REMOTE_ADDR': '127.0.0.1', ...}"
p96
sS'sock_file'
p97
S'<socket._fileobject object>'
p98
sS'environ'
p99
S'undefined'
p100
sS'self.build_environ'
p101
S'<bound method WSGIWorker.build_environ of <WSGIWorker(Thread-6, started daemon 140084586215168)>>'
p102
sS'conn'
p103
S'<gluon.rocket.Connection object>'
p104
ssg73
I1830
sg74
(dp105
I1825
S'        else:'
p106
sI1826
S'            sock_file = conn.makefile(BUF_SIZE)'
p107
sI1827
S''
sI1828
S'        try:'
p108
sI1829
S'            # Read the headers and build our WSGI environment'
p109
sI1830
S'            self.environ = environ = self.build_environ(sock_file, conn)'
p110
sI1831
S''
sI1832
S'            # Handle 100 Continue'
p111
sI1833
S"            if environ.get('HTTP_EXPECT', '') == '100-continue':"
p112
sI1834
S"                res = environ['SERVER_PROTOCOL'] + ' 100 Continue\\r\\n\\r\\n'"
p113
ssg86
S'(self=<WSGIWorker(Thread-6, started daemon 140084586215168)>, conn=<gluon.rocket.Connection object>)'
p114
sg88
S'run_app'
p115
sa(dp116
g63
S'/home/cpnogueira/web2py/gluon/rocket.py'
p117
sg65
(dp118
S'sock_file'
p119
S'<socket._fileobject object>'
p120
sS'self.read_request_line'
p121
S'<bound method WSGIWorker.read_request_line of <W...orker(Thread-6, started daemon 140084586215168)>>'
p122
sS'self'
p123
S'<WSGIWorker(Thread-6, started daemon 140084586215168)>'
p124
sS'request'
p125
g100
ssg73
I1650
sg74
(dp126
I1645
S'                                      "wsgiorg.futures": executor.futures})'
p127
sI1646
S''
sI1647
S'    def build_environ(self, sock_file, conn):'
p128
sI1648
S'        """ Build the execution environment. """'
p129
sI1649
S'        # Grab the request line'
p130
sI1650
S'        request = self.read_request_line(sock_file)'
p131
sI1651
S''
sI1652
S'        # Copy the Base Environment'
p132
sI1653
S'        environ = self.base_environ.copy()'
p133
sI1654
S''
ssg86
S'(self=<WSGIWorker(Thread-6, started daemon 140084586215168)>, sock_file=<socket._fileobject object>, conn=<gluon.rocket.Connection object>)'
p134
sg88
S'build_environ'
p135
sa(dp136
g63
S'/home/cpnogueira/web2py/gluon/rocket.py'
p137
sg65
(dp138
S'global SocketTimeout'
p139
S"<class 'gluon.rocket.SocketTimeout'>"
p140
ssg73
I1401
sg74
(dp141
I1396
S''
sI1397
S'                d = sock_file.readline()'
p142
sI1398
S'                if PY3K:'
p143
sI1399
S"                    d = d.decode('ISO-8859-1')"
p144
sI1400
S'        except socket.timeout:'
p145
sI1401
S"            raise SocketTimeout('Socket timed out before request.')"
p146
sI1402
S'        except TypeError:'
p147
sI1403
S'            raise SocketClosed('
p148
sI1404
S"                'SSL bug caused closure of socket.  See '"
p149
sI1405
S'                \'"https://groups.google.com/d/topic/web2py/P_Gw0JxWzCs".\')'
p150
ssg86
S'(self=<WSGIWorker(Thread-6, started daemon 140084586215168)>, sock_file=<socket._fileobject object>)'
p151
sg88
S'read_request_line'
p152
sasS'pyver'
p153
S'Python 2.7.4: /usr/bin/python (prefix: /usr)'
p154
sS'etype'
p155
S"<class 'gluon.rocket.SocketTimeout'>"
p156
sS'date'
p157
S'Tue Aug 19 15:42:11 2014'
p158
sS'locals'
p159
(dp160
S'sock_file'
p161
S'<socket._fileobject object>'
p162
sS'self'
p163
S'<WSGIWorker(Thread-6, started daemon 140084586215168)>'
p164
sssS'traceback'
p165
S'Traceback (most recent call last):\n  File "/home/cpnogueira/web2py/gluon/rocket.py", line 1337, in run\n    self.run_app(conn)\n  File "/home/cpnogueira/web2py/gluon/rocket.py", line 1830, in run_app\n    self.environ = environ = self.build_environ(sock_file, conn)\n  File "/home/cpnogueira/web2py/gluon/rocket.py", line 1650, in build_environ\n    request = self.read_request_line(sock_file)\n  File "/home/cpnogueira/web2py/gluon/rocket.py", line 1401, in read_request_line\n    raise SocketTimeout(\'Socket timed out before request.\')\nSocketTimeout: Socket timed out before request.\n'
p166
s.