(dp1
S'output'
p2
S"<type 'exceptions.NameError'> name 'double' is not defined"
p3
sS'layer'
p4
S'/home/cpnogueira/web2py/applications/tcc/controllers/default.py'
p5
sS'code'
p6
S'# -*- coding: utf-8 -*-\n# this file is released under public domain and you can use without limitations\n\n#########################################################################\n## This is a sample controller\n## - index is the default action of any application\n## - user is required for authentication and authorization\n## - download is for downloading files uploaded in the db (does streaming)\n## - call exposes all registered services (none by default)\n#########################################################################\nimport json\nimport requests\nfrom requests.auth import HTTPBasicAuth\n\ndef index():\n    """\n    example action using the internationalization operator T and flash\n    rendered by views/default/index.html or views/generic.html\n\n    if you need a simple wiki simply replace the two lines below with:\n    return auth.wiki()\n    """\n    response.flash = T("Welcome to web2py!")\n    return dict(message=T(\'Hello World\'))\n\n\ndef user():\n    """\n    exposes:\n    http://..../[app]/default/user/login\n    http://..../[app]/default/user/logout\n    http://..../[app]/default/user/register\n    http://..../[app]/default/user/profile\n    http://..../[app]/default/user/retrieve_password\n    http://..../[app]/default/user/change_password\n    http://..../[app]/default/user/manage_users (requires membership in\n    use @auth.requires_login()\n        @auth.requires_membership(\'group name\')\n        @auth.requires_permission(\'read\',\'table name\',record_id)\n    to decorate functions that need access control\n    """\n    return dict(form=auth())\n\n@cache.action()\ndef download():\n    """\n    allows downloading of uploaded files\n    http://..../[app]/default/download/[filename]\n    """\n    return response.download(request, db)\n\n\ndef call():\n    """\n    exposes services. for example:\n    http://..../[app]/default/call/jsonrpc\n    decorate with @services.jsonrpc the functions to expose\n    supports xml, json, xmlrpc, jsonrpc, amfrpc, rss, csv\n    """\n    return service()\n\n\n@auth.requires_signature()\ndef data():\n    """\n    http://..../[app]/default/data/tables\n    http://..../[app]/default/data/create/[table]\n    http://..../[app]/default/data/read/[table]/[id]\n    http://..../[app]/default/data/update/[table]/[id]\n    http://..../[app]/default/data/delete/[table]/[id]\n    http://..../[app]/default/data/select/[table]\n    http://..../[app]/default/data/search/[table]\n    but URLs must be signed, i.e. linked with\n      A(\'table\',_href=URL(\'data/tables\',user_signature=True))\n    or with the signed load operator\n      LOAD(\'default\',\'data.load\',args=\'tables\',ajax=True,user_signature=True)\n    """\n    return dict(form=crud())\n\n### DO NOT FORGET: enable autentication!\n@request.restful()\ndef api():\n    response.view = \'generic.\'+request.extension\n    def GET(*args,**vars):\n        patterns = [\n            "/benchmark_set[benchmark_set]",\n            "/benchmark_set[benchmark_set]/:field",\n            "/benchmark_set/{benchmark_set.name.startswith}",\n            "/benchmark_set/{benchmark_set.name}/:field",\n            "/scheduler_worker[scheduler_worker]",\n            "/scheduler_worker[scheduler_worker]/:field",\n            "/scheduler_worker/{scheduler_worker.status}",\n            "/scheduler_worker/{scheduler_worker.status}/:field",\n            "/scheduler_worker/{scheduler_worker.worker_name.startswith}",\n            "/scheduler_worker/{scheduler_worker.worker_name}/:field",\n            "/results[numeric_results]"\n            ]\n\n        parser = db.parse_as_rest(patterns,args,vars)\n        if parser.status == 200:\n            return dict(content=parser.response)\n        else:\n            raise HTTP(parser.status,parser.error)\n\n    def POST(table_name,**vars):\n        return db[table_name].validate_and_insert(**vars)\n\n    def PUT(table_name,record_id,**vars):\n        return db(db[table_name]._id==record_id).update(**vars)\n\n    def DELETE(table_name,record_id):\n        return db(db[table_name]._id==record_id).delete()\n    return dict(GET=GET, POST=POST, PUT=PUT, DELETE=DELETE)\n\ndef add_simulation_from_benchmark():\n    """\n        Start new simulation from the benchmark list\n    """\n    " Get the names of all existing benchmarks "\n    search_str = "http://localhost:8000/tcc/default/api/benchmark_set.json"\n    benchmark_row = json.loads(requests.get(search_str).text);\n\n    "create a list with the benchmark names"\n    benchmarks = [benchmark_row[\'content\'][i][\'name\'] for i in range(len(benchmark_row[\'content\']))]\n\n    " Get the names of all active working nodes"\n    search_str = "http://localhost:8000/tcc/default/api/scheduler_worker/active.json"\n    working_nodes_row = json.loads(requests.get(search_str).text);\n\n    "create a list with all active working nodes names"\n    working_nd = [(working_nodes_row[\'content\'][i][\'id\'], working_nodes_row[\'content\'][i][\'worker_name\']) for i in range(len(working_nodes_row[\'content\']))]\n\n    simulation_form = SQLFORM.factory(\n                                      Field(\'benchmark_set\', requires=IS_IN_SET(benchmarks, zero=T(\'-- Select benchmark set --\'))),\n                                      Field(\'start_level\',\'integer\',default=1, requires=IS_EXPR(\'int(value)>0\')),\n                                      Field(\'final_level\',\'integer\',default=16, requires=IS_EXPR(\'int(value)>0\')),\n                                      Field(\'reference_price\',\'double\',requires=IS_EXPR(\'double(value)>0\')),\n                                      Field(\'price_precision\',\'double\',requires=IS_EXPR(\'double(value)>0\')),\n                                      Field(\'available_resources\', \'boolean\', requires=IS_IN_SET(working_nd, multiple=True), widget=SQLFORM.widgets.checkboxes.widget)\n                                      )\n    if simulation_form.validate():\n        "payload = {\'name\':alg_form.vars.name, \'description\':alg_form.vars.description}"\n        """r = requests.post("http://127.0.0.1:8000/webpricer/default/api/algorithm.json", data=payload)"""\n        # TODO:redirects based in whatever.\n    elif simulation_form.errors:\n        response.flash = T(\'Please check for errors on form!\')\n    else:\n        response.flash = T(\'Please fill the form\')\n    \n    return dict(simulation_form=simulation_form, working_nd=working_nd)\n\nresponse._vars=response._caller(add_simulation_from_benchmark)\n'
p7
sS'snapshot'
p8
(dp9
S'exception'
p10
(dp11
S'__hash__'
p12
S"<method-wrapper '__hash__' of exceptions.NameError object>"
p13
sS'__setattr__'
p14
S"<method-wrapper '__setattr__' of exceptions.NameError object>"
p15
sS'__reduce_ex__'
p16
S'<built-in method __reduce_ex__ of exceptions.NameError object>'
p17
sS'__getslice__'
p18
S"<method-wrapper '__getslice__' of exceptions.NameError object>"
p19
sS'__getitem__'
p20
S"<method-wrapper '__getitem__' of exceptions.NameError object>"
p21
sS'__setstate__'
p22
S'<built-in method __setstate__ of exceptions.NameError object>'
p23
sS'args'
p24
S'("name \'double\' is not defined",)'
p25
sS'__reduce__'
p26
S'<built-in method __reduce__ of exceptions.NameError object>'
p27
sS'__str__'
p28
S"<method-wrapper '__str__' of exceptions.NameError object>"
p29
sS'__format__'
p30
S'<built-in method __format__ of exceptions.NameError object>'
p31
sS'__getattribute__'
p32
S"<method-wrapper '__getattribute__' of exceptions.NameError object>"
p33
sS'__class__'
p34
S"<type 'exceptions.NameError'>"
p35
sS'__unicode__'
p36
S'<built-in method __unicode__ of exceptions.NameError object>'
p37
sS'__delattr__'
p38
S"<method-wrapper '__delattr__' of exceptions.NameError object>"
p39
sS'__subclasshook__'
p40
S'<built-in method __subclasshook__ of type object>'
p41
sS'__repr__'
p42
S"<method-wrapper '__repr__' of exceptions.NameError object>"
p43
sS'__dict__'
p44
S'{}'
p45
sS'__sizeof__'
p46
S'<built-in method __sizeof__ of exceptions.NameError object>'
p47
sS'__doc__'
p48
S"'Name not found globally.'"
p49
sS'__init__'
p50
S"<method-wrapper '__init__' of exceptions.NameError object>"
p51
sS'__new__'
p52
S'<built-in method __new__ of type object>'
p53
ssS'evalue'
p54
S"name 'double' is not defined"
p55
sS'request'
p56
cgluon.html
XML_unpickle
p57
(S's)k\x00\x00<div><table><tr><td style="font-weight:bold;vertical-align:top;">ajax</td><td style="vertical-align:top;">:</td><td><div>False</div></td></tr><tr><td style="font-weight:bold;vertical-align:top;">application</td><td style="vertical-align:top;">:</td><td><div>tcc</div></td></tr><tr><td style="font-weight:bold;vertical-align:top;">args</td><td style="vertical-align:top;">:</td><td><div><table></table></div></td></tr><tr><td style="font-weight:bold;vertical-align:top;">cid</td><td style="vertical-align:top;">:</td><td><div>None</div></td></tr><tr><td style="font-weight:bold;vertical-align:top;">client</td><td style="vertical-align:top;">:</td><td><div>127.0.0.1</div></td></tr><tr><td style="font-weight:bold;vertical-align:top;">controller</td><td style="vertical-align:top;">:</td><td><div>default</div></td></tr><tr><td style="font-weight:bold;vertical-align:top;">cookies</td><td style="vertical-align:top;">:</td><td><div><table><tr><td style="font-weight:bold;vertical-align:top;">session_id_admin</td><td style="vertical-align:top;">:</td><td><div>127.0.0.1-16cae3b9-4831-4738-a9e6-2243159f95d8<table><tr><td style="font-weight:bold;vertical-align:top;">comment</td><td style="vertical-align:top;">:</td><td><div></div></td></tr><tr><td style="font-weight:bold;vertical-align:top;">domain</td><td style="vertical-align:top;">:</td><td><div></div></td></tr><tr><td style="font-weight:bold;vertical-align:top;">expires</td><td style="vertical-align:top;">:</td><td><div></div></td></tr><tr><td style="font-weight:bold;vertical-align:top;">httponly</td><td style="vertical-align:top;">:</td><td><div></div></td></tr><tr><td style="font-weight:bold;vertical-align:top;">max-age</td><td style="vertical-align:top;">:</td><td><div></div></td></tr><tr><td style="font-weight:bold;vertical-align:top;">path</td><td style="vertical-align:top;">:</td><td><div></div></td></tr><tr><td style="font-weight:bold;vertical-align:top;">secure</td><td style="vertical-align:top;">:</td><td><div></div></td></tr><tr><td style="font-weight:bold;vertical-align:top;">version</td><td style="vertical-align:top;">:</td><td><div></div></td></tr></table></div></td></tr><tr><td style="font-weight:bold;vertical-align:top;">session_id_financewebpricer</td><td style="vertical-align:top;">:</td><td><div>127.0.0.1-507e945a-1db4-4b0a-be70-294913ee95fd<table><tr><td style="font-weight:bold;vertical-align:top;">comment</td><td style="vertical-align:top;">:</td><td><div></div></td></tr><tr><td style="font-weight:bold;vertical-align:top;">domain</td><td style="vertical-align:top;">:</td><td><div></div></td></tr><tr><td style="font-weight:bold;vertical-align:top;">expires</td><td style="vertical-align:top;">:</td><td><div></div></td></tr><tr><td style="font-weight:bold;vertical-align:top;">httponly</td><td style="vertical-align:top;">:</td><td><div></div></td></tr><tr><td style="font-weight:bold;vertical-align:top;">max-age</td><td style="vertical-align:top;">:</td><td><div></div></td></tr><tr><td style="font-weight:bold;vertical-align:top;">path</td><td style="vertical-align:top;">:</td><td><div></div></td></tr><tr><td style="font-weight:bold;vertical-align:top;">secure</td><td style="vertical-align:top;">:</td><td><div></div></td></tr><tr><td style="font-weight:bold;vertical-align:top;">version</td><td style="vertical-align:top;">:</td><td><div></div></td></tr></table></div></td></tr><tr><td style="font-weight:bold;vertical-align:top;">session_id_tcc</td><td style="vertical-align:top;">:</td><td><div>127.0.0.1-7d692b1c-078d-4cf9-b02b-11b4ba5919a7<table><tr><td style="font-weight:bold;vertical-align:top;">comment</td><td style="vertical-align:top;">:</td><td><div></div></td></tr><tr><td style="font-weight:bold;vertical-align:top;">domain</td><td style="vertical-align:top;">:</td><td><div></div></td></tr><tr><td style="font-weight:bold;vertical-align:top;">expires</td><td style="vertical-align:top;">:</td><td><div></div></td></tr><tr><td style="font-weight:bold;vertical-align:top;">httponly</td><td style="vertical-align:top;">:</td><td><div></div></td></tr><tr><td style="font-weight:bold;vertical-align:top;">max-age</td><td style="vertical-align:top;">:</td><td><div></div></td></tr><tr><td style="font-weight:bold;vertical-align:top;">path</td><td style="vertical-align:top;">:</td><td><div></div></td></tr><tr><td style="font-weight:bold;vertical-align:top;">secure</td><td style="vertical-align:top;">:</td><td><div></div></td></tr><tr><td style="font-weight:bold;vertical-align:top;">version</td><td style="vertical-align:top;">:</td><td><div></div></td></tr></table></div></td></tr><tr><td style="font-weight:bold;vertical-align:top;">session_id_webpricer</td><td style="vertical-align:top;">:</td><td><div>127.0.0.1-7a645a43-7082-49c6-93e8-530290dfb5a7<table><tr><td style="font-weight:bold;vertical-align:top;">comment</td><td style="vertical-align:top;">:</td><td><div></div></td></tr><tr><td style="font-weight:bold;vertical-align:top;">domain</td><td style="vertical-align:top;">:</td><td><div></div></td></tr><tr><td style="font-weight:bold;vertical-align:top;">expires</td><td style="vertical-align:top;">:</td><td><div></div></td></tr><tr><td style="font-weight:bold;vertical-align:top;">httponly</td><td style="vertical-align:top;">:</td><td><div></div></td></tr><tr><td style="font-weight:bold;vertical-align:top;">max-age</td><td style="vertical-align:top;">:</td><td><div></div></td></tr><tr><td style="font-weight:bold;vertical-align:top;">path</td><td style="vertical-align:top;">:</td><td><div></div></td></tr><tr><td style="font-weight:bold;vertical-align:top;">secure</td><td style="vertical-align:top;">:</td><td><div></div></td></tr><tr><td style="font-weight:bold;vertical-align:top;">version</td><td style="vertical-align:top;">:</td><td><div></div></td></tr></table></div></td></tr><tr><td style="font-weight:bold;vertical-align:top;">session_id_welcome</td><td style="vertical-align:top;">:</td><td><div>127.0.0.1-13d73e6a-2621-49a2-8dc2-321cd8c25bb6<table><tr><td style="font-weight:bold;vertical-align:top;">comment</td><td style="vertical-align:top;">:</td><td><div></div></td></tr><tr><td style="font-weight:bold;vertical-align:top;">domain</td><td style="vertical-align:top;">:</td><td><div></div></td></tr><tr><td style="font-weight:bold;vertical-align:top;">expires</td><td style="vertical-align:top;">:</td><td><div></div></td></tr><tr><td style="font-weight:bold;vertical-align:top;">httponly</td><td style="vertical-align:top;">:</td><td><div></div></td></tr><tr><td style="font-weight:bold;vertical-align:top;">max-age</td><td style="vertical-align:top;">:</td><td><div></div></td></tr><tr><td style="font-weight:bold;vertical-align:top;">path</td><td style="vertical-align:top;">:</td><td><div></div></td></tr><tr><td style="font-weight:bold;vertical-align:top;">secure</td><td style="vertical-align:top;">:</td><td><div></div></td></tr><tr><td style="font-weight:bold;vertical-align:top;">version</td><td style="vertical-align:top;">:</td><td><div></div></td></tr></table></div></td></tr></table></div></td></tr><tr><td style="font-weight:bold;vertical-align:top;">env</td><td style="vertical-align:top;">:</td><td><div><table><tr><td style="font-weight:bold;vertical-align:top;">CONTENT_LENGTH</td><td style="vertical-align:top;">:</td><td><div>1072</div></td></tr><tr><td style="font-weight:bold;vertical-align:top;">CONTENT_TYPE</td><td style="vertical-align:top;">:</td><td><div>multipart/form-data; boundary=---------------------------17253059101318306819460662071</div></td></tr><tr><td style="font-weight:bold;vertical-align:top;">HTTP_ACCEPT</td><td style="vertical-align:top;">:</td><td><div>text/html,application/xhtml+xml,application/xml;q=0.9,*/*;q=0.8</div></td></tr><tr><td style="font-weight:bold;vertical-align:top;">HTTP_ACCEPT_ENCODING</td><td style="vertical-align:top;">:</td><td><div>gzip, deflate</div></td></tr><tr><td style="font-weight:bold;vertical-align:top;">HTTP_ACCEPT_LANGUAGE</td><td style="vertical-align:top;">:</td><td><div>en-US,en;q=0.5</div></td></tr><tr><td style="font-weight:bold;vertical-align:top;">HTTP_CONNECTION</td><td style="vertical-align:top;">:</td><td><div>keep-alive</div></td></tr><tr><td style="font-weight:bold;vertical-align:top;">HTTP_CONTENT_LENGTH</td><td style="vertical-align:top;">:</td><td><div>1072</div></td></tr><tr><td style="font-weight:bold;vertical-align:top;">HTTP_CONTENT_TYPE</td><td style="vertical-align:top;">:</td><td><div>multipart/form-data; boundary=---------------------------17253059101318306819460662071</div></td></tr><tr><td style="font-weight:bold;vertical-align:top;">HTTP_COOKIE</td><td style="vertical-align:top;">:</td><td><div>session_id_financewebpricer=127.0.0.1-507e945a-1db4-4b0a-be70-294913ee95fd; session_id_webpricer=127.0.0.1-7a645a43-7082-49c6-93e8-530290dfb5a7; session_id_welcome=127.0.0.1-13d73e6a-2621-49a2-8dc2-321cd8c25bb6; session_id_admin=127.0.0.1-16cae3b9-4831-4738-a9e6-2243159f95d8; session_id_tcc=127.0.0.1-7d692b1c-078d-4cf9-b02b-11b4ba5919a7</div></td></tr><tr><td style="font-weight:bold;vertical-align:top;">HTTP_HOST</td><td style="vertical-align:top;">:</td><td><div>127.0.0.1:8000</div></td></tr><tr><td style="font-weight:bold;vertical-align:top;">HTTP_REFERER</td><td style="vertical-align:top;">:</td><td><div>http://127.0.0.1:8000/tcc/default/add_simulation_from_benchmark</div></td></tr><tr><td style="font-weight:bold;vertical-align:top;">HTTP_USER_AGENT</td><td style="vertical-align:top;">:</td><td><div>Mozilla/5.0 (X11; Ubuntu; Linux x86_64; rv:26.0) Gecko/20100101 Firefox/26.0</div></td></tr><tr><td style="font-weight:bold;vertical-align:top;">PATH_INFO</td><td style="vertical-align:top;">:</td><td><div>/tcc/default/add_simulation_from_benchmark</div></td></tr><tr><td style="font-weight:bold;vertical-align:top;">QUERY_STRING</td><td style="vertical-align:top;">:</td><td><div></div></td></tr><tr><td style="font-weight:bold;vertical-align:top;">REMOTE_ADDR</td><td style="vertical-align:top;">:</td><td><div>127.0.0.1</div></td></tr><tr><td style="font-weight:bold;vertical-align:top;">REMOTE_PORT</td><td style="vertical-align:top;">:</td><td><div>52283</div></td></tr><tr><td style="font-weight:bold;vertical-align:top;">REQUEST_METHOD</td><td style="vertical-align:top;">:</td><td><div>POST</div></td></tr><tr><td style="font-weight:bold;vertical-align:top;">SCRIPT_NAME</td><td style="vertical-align:top;">:</td><td><div></div></td></tr><tr><td style="font-weight:bold;vertical-align:top;">SERVER_NAME</td><td style="vertical-align:top;">:</td><td><div>xD</div></td></tr><tr><td style="font-weight:bold;vertical-align:top;">SERVER_PORT</td><td style="vertical-align:top;">:</td><td><div>8000</div></td></tr><tr><td style="font-weight:bold;vertical-align:top;">SERVER_PROTOCOL</td><td style="vertical-align:top;">:</td><td><div>HTTP/1.1</div></td></tr><tr><td style="font-weight:bold;vertical-align:top;">SERVER_SOFTWARE</td><td style="vertical-align:top;">:</td><td><div>Rocket 1.2.6</div></td></tr><tr><td style="font-weight:bold;vertical-align:top;">app_folders</td><td style="vertical-align:top;">:</td><td><div>set([&#x27;/home/cpnogueira/web2py/applications/webpricer/&#x27;, &#x27;/home/cpnogueira/web2py/applications/financewebpricer/&#x27;, &#x27;/home/cpnogueira/web2py/applications/tcc/&#x27;, &#x27;/home/cpnogueira/web2py/applications/admin/&#x27;, &#x27;/home/cpnogueira/web2py/applications/welcome/&#x27;])</div></td></tr><tr><td style="font-weight:bold;vertical-align:top;">applications_parent</td><td style="vertical-align:top;">:</td><td><div>/home/cpnogueira/web2py</div></td></tr><tr><td style="font-weight:bold;vertical-align:top;">cmd_args</td><td style="vertical-align:top;">:</td><td><div><table></table></div></td></tr><tr><td style="font-weight:bold;vertical-align:top;">cmd_options</td><td style="vertical-align:top;">:</td><td><div>&lt;Values at 0x15cc998: {&#x27;verbose&#x27;: False, &#x27;ip&#x27;: &#x27;127.0.0.1&#x27;, &#x27;debuglevel&#x27;: 30, &#x27;with_scheduler&#x27;: False, &#x27;ips&#x27;: [&#x27;127.0.1.1&#x27;], &#x27;shutdown_timeout&#x27;: 5, &#x27;taskbar&#x27;: False, &#x27;with_coverage&#x27;: False, &#x27;port&#x27;: 8000, &#x27;maxthreads&#x27;: None, &#x27;softcron&#x27;: False, &#x27;server_name&#x27;: &#x27;xD&#x27;, &#x27;bpython&#x27;: False, &#x27;nogui&#x27;: False, &#x27;pid_filename&#x27;: &#x27;httpserver.pid&#x27;, &#x27;extcron&#x27;: False, &#x27;runcron&#x27;: False, &#x27;run_system_tests&#x27;: False, &#x27;test&#x27;: None, &#x27;folder&#x27;: &#x27;/home/cpnogueira/web2py&#x27;, &#x27;config&#x27;: &#x27;&#x27;, &#x27;minthreads&#x27;: None, &#x27;shell&#x27;: None, &#x27;run&#x27;: &#x27;&#x27;, &#x27;log_filename&#x27;: &#x27;httpserver.log&#x27;, &#x27;profiler_dir&#x27;: None, &#x27;args&#x27;: [&#x27;&#x27;], &#x27;socket_timeout&#x27;: 5, &#x27;ssl_ca_certificate&#x27;: None, &#x27;scheduler&#x27;: None, &#x27;interfaces&#x27;: None, &#x27;ssl_private_key&#x27;: &#x27;&#x27;, &#x27;scheduler_groups&#x27;: None, &#x27;password&#x27;: &#x27;&lt;ask&gt;&#x27;, &#x27;request_queue_size&#x27;: 5, &#x27;ssl_certificate&#x27;: &#x27;&#x27;, &#x27;cronjob&#x27;: False, &#x27;numthreads&#x27;: None, &#x27;quiet&#x27;: False, &#x27;import_models&#x27;: False, &#x27;timeout&#x27;: 10, &#x27;plain&#x27;: False, &#x27;nobanner&#x27;: False}&gt;</div></td></tr><tr><td style="font-weight:bold;vertical-align:top;">content_length</td><td style="vertical-align:top;">:</td><td><div>1072</div></td></tr><tr><td style="font-weight:bold;vertical-align:top;">content_type</td><td style="vertical-align:top;">:</td><td><div>multipart/form-data; boundary=---------------------------17253059101318306819460662071</div></td></tr><tr><td style="font-weight:bold;vertical-align:top;">db_sessions</td><td style="vertical-align:top;">:</td><td><div>set([])</div></td></tr><tr><td style="font-weight:bold;vertical-align:top;">debugging</td><td style="vertical-align:top;">:</td><td><div>True</div></td></tr><tr><td style="font-weight:bold;vertical-align:top;">gluon_parent</td><td style="vertical-align:top;">:</td><td><div>/home/cpnogueira/web2py</div></td></tr><tr><td style="font-weight:bold;vertical-align:top;">http_accept</td><td style="vertical-align:top;">:</td><td><div>text/html,application/xhtml+xml,application/xml;q=0.9,*/*;q=0.8</div></td></tr><tr><td style="font-weight:bold;vertical-align:top;">http_accept_encoding</td><td style="vertical-align:top;">:</td><td><div>gzip, deflate</div></td></tr><tr><td style="font-weight:bold;vertical-align:top;">http_accept_language</td><td style="vertical-align:top;">:</td><td><div>en-US,en;q=0.5</div></td></tr><tr><td style="font-weight:bold;vertical-align:top;">http_connection</td><td style="vertical-align:top;">:</td><td><div>keep-alive</div></td></tr><tr><td style="font-weight:bold;vertical-align:top;">http_content_length</td><td style="vertical-align:top;">:</td><td><div>1072</div></td></tr><tr><td style="font-weight:bold;vertical-align:top;">http_content_type</td><td style="vertical-align:top;">:</td><td><div>multipart/form-data; boundary=---------------------------17253059101318306819460662071</div></td></tr><tr><td style="font-weight:bold;vertical-align:top;">http_cookie</td><td style="vertical-align:top;">:</td><td><div>session_id_financewebpricer=127.0.0.1-507e945a-1db4-4b0a-be70-294913ee95fd; session_id_webpricer=127.0.0.1-7a645a43-7082-49c6-93e8-530290dfb5a7; session_id_welcome=127.0.0.1-13d73e6a-2621-49a2-8dc2-321cd8c25bb6; session_id_admin=127.0.0.1-16cae3b9-4831-4738-a9e6-2243159f95d8; session_id_tcc=127.0.0.1-7d692b1c-078d-4cf9-b02b-11b4ba5919a7</div></td></tr><tr><td style="font-weight:bold;vertical-align:top;">http_host</td><td style="vertical-align:top;">:</td><td><div>127.0.0.1:8000</div></td></tr><tr><td style="font-weight:bold;vertical-align:top;">http_referer</td><td style="vertical-align:top;">:</td><td><div>http://127.0.0.1:8000/tcc/default/add_simulation_from_benchmark</div></td></tr><tr><td style="font-weight:bold;vertical-align:top;">http_user_agent</td><td style="vertical-align:top;">:</td><td><div>Mozilla/5.0 (X11; Ubuntu; Linux x86_64; rv:26.0) Gecko/20100101 Firefox/26.0</div></td></tr><tr><td style="font-weight:bold;vertical-align:top;">is_jython</td><td style="vertical-align:top;">:</td><td><div>False</div></td></tr><tr><td style="font-weight:bold;vertical-align:top;">is_pypy</td><td style="vertical-align:top;">:</td><td><div>False</div></td></tr><tr><td style="font-weight:bold;vertical-align:top;">is_source</td><td style="vertical-align:top;">:</td><td><div>True</div></td></tr><tr><td style="font-weight:bold;vertical-align:top;">local_hosts</td><td style="vertical-align:top;">:</td><td><div><table><tr><td><div>127.0.1.1</div></td></tr><tr><td><div>::1</div></td></tr><tr><td><div>xD</div></td></tr><tr><td><div>::ffff:127.0.0.1</div></td></tr><tr><td><div>127.0.0.1</div></td></tr></table></div></td></tr><tr><td style="font-weight:bold;vertical-align:top;">path_info</td><td style="vertical-align:top;">:</td><td><div>/tcc/default/add_simulation_from_benchmark</div></td></tr><tr><td style="font-weight:bold;vertical-align:top;">query_string</td><td style="vertical-align:top;">:</td><td><div></div></td></tr><tr><td style="font-weight:bold;vertical-align:top;">remote_addr</td><td style="vertical-align:top;">:</td><td><div>127.0.0.1</div></td></tr><tr><td style="font-weight:bold;vertical-align:top;">remote_port</td><td style="vertical-align:top;">:</td><td><div>52283</div></td></tr><tr><td style="font-weight:bold;vertical-align:top;">request_method</td><td style="vertical-align:top;">:</td><td><div>POST</div></td></tr><tr><td style="font-weight:bold;vertical-align:top;">request_uri</td><td style="vertical-align:top;">:</td><td><div>/tcc/default/add_simulation_from_benchmark</div></td></tr><tr><td style="font-weight:bold;vertical-align:top;">script_name</td><td style="vertical-align:top;">:</td><td><div></div></td></tr><tr><td style="font-weight:bold;vertical-align:top;">server_name</td><td style="vertical-align:top;">:</td><td><div>xD</div></td></tr><tr><td style="font-weight:bold;vertical-align:top;">server_port</td><td style="vertical-align:top;">:</td><td><div>8000</div></td></tr><tr><td style="font-weight:bold;vertical-align:top;">server_protocol</td><td style="vertical-align:top;">:</td><td><div>HTTP/1.1</div></td></tr><tr><td style="font-weight:bold;vertical-align:top;">server_software</td><td style="vertical-align:top;">:</td><td><div>Rocket 1.2.6</div></td></tr><tr><td style="font-weight:bold;vertical-align:top;">web2py_path</td><td style="vertical-align:top;">:</td><td><div>/home/cpnogueira/web2py</div></td></tr><tr><td style="font-weight:bold;vertical-align:top;">web2py_version</td><td style="vertical-align:top;">:</td><td><div>2.8.2-stable+timestamp.2013.11.28.13.54.07</div></td></tr><tr><td style="font-weight:bold;vertical-align:top;">wsgi.errors</td><td style="vertical-align:top;">:</td><td><div>&lt;open file &#x27;&lt;stderr&gt;&#x27;, mode &#x27;w&#x27; at 0x7f6a6fdca1e0&gt;</div></td></tr><tr><td style="font-weight:bold;vertical-align:top;">wsgi.file_wrapper</td><td style="vertical-align:top;">:</td><td><div>&lt;class wsgiref.util.FileWrapper at 0x1545050&gt;</div></td></tr><tr><td style="font-weight:bold;vertical-align:top;">wsgi.input</td><td style="vertical-align:top;">:</td><td><div>&lt;socket._fileobject object at 0x7f6a4c0da9d0&gt;</div></td></tr><tr><td style="font-weight:bold;vertical-align:top;">wsgi.multiprocess</td><td style="vertical-align:top;">:</td><td><div>False</div></td></tr><tr><td style="font-weight:bold;vertical-align:top;">wsgi.multithread</td><td style="vertical-align:top;">:</td><td><div>True</div></td></tr><tr><td style="font-weight:bold;vertical-align:top;">wsgi.run_once</td><td style="vertical-align:top;">:</td><td><div>False</div></td></tr><tr><td style="font-weight:bold;vertical-align:top;">wsgi.url_scheme</td><td style="vertical-align:top;">:</td><td><div>http</div></td></tr><tr><td style="font-weight:bold;vertical-align:top;">wsgi.version</td><td style="vertical-align:top;">:</td><td><div><table><tr><td><div>1</div></td></tr><tr><td><div>0</div></td></tr></table></div></td></tr><tr><td style="font-weight:bold;vertical-align:top;">wsgi_errors</td><td style="vertical-align:top;">:</td><td><div>&lt;open file &#x27;&lt;stderr&gt;&#x27;, mode &#x27;w&#x27; at 0x7f6a6fdca1e0&gt;</div></td></tr><tr><td style="font-weight:bold;vertical-align:top;">wsgi_file_wrapper</td><td style="vertical-align:top;">:</td><td><div>&lt;class wsgiref.util.FileWrapper at 0x1545050&gt;</div></td></tr><tr><td style="font-weight:bold;vertical-align:top;">wsgi_input</td><td style="vertical-align:top;">:</td><td><div>&lt;socket._fileobject object at 0x7f6a4c0da9d0&gt;</div></td></tr><tr><td style="font-weight:bold;vertical-align:top;">wsgi_multiprocess</td><td style="vertical-align:top;">:</td><td><div>False</div></td></tr><tr><td style="font-weight:bold;vertical-align:top;">wsgi_multithread</td><td style="vertical-align:top;">:</td><td><div>True</div></td></tr><tr><td style="font-weight:bold;vertical-align:top;">wsgi_run_once</td><td style="vertical-align:top;">:</td><td><div>False</div></td></tr><tr><td style="font-weight:bold;vertical-align:top;">wsgi_url_scheme</td><td style="vertical-align:top;">:</td><td><div>http</div></td></tr><tr><td style="font-weight:bold;vertical-align:top;">wsgi_version</td><td style="vertical-align:top;">:</td><td><div><table><tr><td><div>1</div></td></tr><tr><td><div>0</div></td></tr></table></div></td></tr></table></div></td></tr><tr><td style="font-weight:bold;vertical-align:top;">extension</td><td style="vertical-align:top;">:</td><td><div>html</div></td></tr><tr><td style="font-weight:bold;vertical-align:top;">folder</td><td style="vertical-align:top;">:</td><td><div>/home/cpnogueira/web2py/applications/tcc/</div></td></tr><tr><td style="font-weight:bold;vertical-align:top;">function</td><td style="vertical-align:top;">:</td><td><div>add_simulation_from_benchmark</div></td></tr><tr><td style="font-weight:bold;vertical-align:top;">global_settings</td><td style="vertical-align:top;">:</td><td><div><table><tr><td style="font-weight:bold;vertical-align:top;">app_folders</td><td style="vertical-align:top;">:</td><td><div>set([&#x27;/home/cpnogueira/web2py/applications/webpricer/&#x27;, &#x27;/home/cpnogueira/web2py/applications/financewebpricer/&#x27;, &#x27;/home/cpnogueira/web2py/applications/tcc/&#x27;, &#x27;/home/cpnogueira/web2py/applications/admin/&#x27;, &#x27;/home/cpnogueira/web2py/applications/welcome/&#x27;])</div></td></tr><tr><td style="font-weight:bold;vertical-align:top;">applications_parent</td><td style="vertical-align:top;">:</td><td><div>/home/cpnogueira/web2py</div></td></tr><tr><td style="font-weight:bold;vertical-align:top;">cmd_args</td><td style="vertical-align:top;">:</td><td><div><table></table></div></td></tr><tr><td style="font-weight:bold;vertical-align:top;">cmd_options</td><td style="vertical-align:top;">:</td><td><div>&lt;Values at 0x15cc998: {&#x27;verbose&#x27;: False, &#x27;ip&#x27;: &#x27;127.0.0.1&#x27;, &#x27;debuglevel&#x27;: 30, &#x27;with_scheduler&#x27;: False, &#x27;ips&#x27;: [&#x27;127.0.1.1&#x27;], &#x27;shutdown_timeout&#x27;: 5, &#x27;taskbar&#x27;: False, &#x27;with_coverage&#x27;: False, &#x27;port&#x27;: 8000, &#x27;maxthreads&#x27;: None, &#x27;softcron&#x27;: False, &#x27;server_name&#x27;: &#x27;xD&#x27;, &#x27;bpython&#x27;: False, &#x27;nogui&#x27;: False, &#x27;pid_filename&#x27;: &#x27;httpserver.pid&#x27;, &#x27;extcron&#x27;: False, &#x27;runcron&#x27;: False, &#x27;run_system_tests&#x27;: False, &#x27;test&#x27;: None, &#x27;folder&#x27;: &#x27;/home/cpnogueira/web2py&#x27;, &#x27;config&#x27;: &#x27;&#x27;, &#x27;minthreads&#x27;: None, &#x27;shell&#x27;: None, &#x27;run&#x27;: &#x27;&#x27;, &#x27;log_filename&#x27;: &#x27;httpserver.log&#x27;, &#x27;profiler_dir&#x27;: None, &#x27;args&#x27;: [&#x27;&#x27;], &#x27;socket_timeout&#x27;: 5, &#x27;ssl_ca_certificate&#x27;: None, &#x27;scheduler&#x27;: None, &#x27;interfaces&#x27;: None, &#x27;ssl_private_key&#x27;: &#x27;&#x27;, &#x27;scheduler_groups&#x27;: None, &#x27;password&#x27;: &#x27;&lt;ask&gt;&#x27;, &#x27;request_queue_size&#x27;: 5, &#x27;ssl_certificate&#x27;: &#x27;&#x27;, &#x27;cronjob&#x27;: False, &#x27;numthreads&#x27;: None, &#x27;quiet&#x27;: False, &#x27;import_models&#x27;: False, &#x27;timeout&#x27;: 10, &#x27;plain&#x27;: False, &#x27;nobanner&#x27;: False}&gt;</div></td></tr><tr><td style="font-weight:bold;vertical-align:top;">db_sessions</td><td style="vertical-align:top;">:</td><td><div>set([])</div></td></tr><tr><td style="font-weight:bold;vertical-align:top;">debugging</td><td style="vertical-align:top;">:</td><td><div>True</div></td></tr><tr><td style="font-weight:bold;vertical-align:top;">gluon_parent</td><td style="vertical-align:top;">:</td><td><div>/home/cpnogueira/web2py</div></td></tr><tr><td style="font-weight:bold;vertical-align:top;">is_jython</td><td style="vertical-align:top;">:</td><td><div>False</div></td></tr><tr><td style="font-weight:bold;vertical-align:top;">is_pypy</td><td style="vertical-align:top;">:</td><td><div>False</div></td></tr><tr><td style="font-weight:bold;vertical-align:top;">is_source</td><td style="vertical-align:top;">:</td><td><div>True</div></td></tr><tr><td style="font-weight:bold;vertical-align:top;">local_hosts</td><td style="vertical-align:top;">:</td><td><div><table><tr><td><div>127.0.1.1</div></td></tr><tr><td><div>::1</div></td></tr><tr><td><div>xD</div></td></tr><tr><td><div>::ffff:127.0.0.1</div></td></tr><tr><td><div>127.0.0.1</div></td></tr></table></div></td></tr><tr><td style="font-weight:bold;vertical-align:top;">web2py_version</td><td style="vertical-align:top;">:</td><td><div>2.8.2-stable+timestamp.2013.11.28.13.54.07</div></td></tr></table></div></td></tr><tr><td style="font-weight:bold;vertical-align:top;">is_https</td><td style="vertical-align:top;">:</td><td><div>False</div></td></tr><tr><td style="font-weight:bold;vertical-align:top;">is_local</td><td style="vertical-align:top;">:</td><td><div>True</div></td></tr><tr><td style="font-weight:bold;vertical-align:top;">is_restful</td><td style="vertical-align:top;">:</td><td><div>False</div></td></tr><tr><td style="font-weight:bold;vertical-align:top;">now</td><td style="vertical-align:top;">:</td><td><div>datetime.datetime(2014, 6, 28, 19, 54, 51, 612895)</div></td></tr><tr><td style="font-weight:bold;vertical-align:top;">raw_args</td><td style="vertical-align:top;">:</td><td><div></div></td></tr><tr><td style="font-weight:bold;vertical-align:top;">raw_extension</td><td style="vertical-align:top;">:</td><td><div>None</div></td></tr><tr><td style="font-weight:bold;vertical-align:top;">url</td><td style="vertical-align:top;">:</td><td><div>/tcc/default/add_simulation_from_benchmark</div></td></tr><tr><td style="font-weight:bold;vertical-align:top;">utcnow</td><td style="vertical-align:top;">:</td><td><div>datetime.datetime(2014, 6, 28, 17, 54, 51, 612914)</div></td></tr><tr><td style="font-weight:bold;vertical-align:top;">uuid</td><td style="vertical-align:top;">:</td><td><div>tcc/127.0.0.1.2014-06-28.19-54-51.f5f2ba80-48a5-4002-afe1-fedea848a8c3</div></td></tr><tr><td style="font-weight:bold;vertical-align:top;">wsgi</td><td style="vertical-align:top;">:</td><td><div>&lt;gluon.main.LazyWSGI object at 0x7f6a383127d0&gt;</div></td></tr></table></div>'
tRp58
sS'frames'
p59
(lp60
(dp61
S'file'
p62
S'/home/cpnogueira/web2py/gluon/restricted.py'
p63
sS'dump'
p64
(dp65
S'environment'
p66
S"{'A': <class 'gluon.html.A'>, 'ANY_OF': <class 'gluon.validators.ANY_OF'>, 'Auth': <class 'gluon.tools.Auth'>, 'B': <class 'gluon.html.B'>, 'BEAUTIFY': <class 'gluon.html.BEAUTIFY'>, 'BODY': <class 'gluon.html.BODY'>, 'BR': <class 'gluon.html.BR'>, 'BUTTON': <class 'gluon.html.BUTTON'>, 'CAT': <class 'gluon.html.CAT'>, 'CENTER': <class 'gluon.html.CENTER'>, ...}"
p67
sS'ccode'
p68
S'<code object <module> at 0x7f6a40290130, file "/...pplications/tcc/controllers/default.py", line 11>'
p69
ssS'lnum'
p70
I217
sS'lines'
p71
(dp72
I212
S'    try:'
p73
sI213
S'        if isinstance(code, types.CodeType):'
p74
sI214
S'            ccode = code'
p75
sI215
S'        else:'
p76
sI216
S'            ccode = compile2(code, layer)'
p77
sI217
S'        exec ccode in environment'
p78
sI218
S'    except HTTP:'
p79
sI219
S'        raise'
p80
sI220
S'    except RestrictedError:'
p81
sI221
S'        # do not encapsulate (obfuscate) the original RestrictedError'
p82
ssS'call'
p83
S"(code='# -*- coding: utf-8 -*-\\n# this file is released ...=response._caller(add_simulation_from_benchmark)\\n', environment={'A': <class 'gluon.html.A'>, 'ANY_OF': <class 'gluon.validators.ANY_OF'>, 'Auth': <class 'gluon.tools.Auth'>, 'B': <class 'gluon.html.B'>, 'BEAUTIFY': <class 'gluon.html.BEAUTIFY'>, 'BODY': <class 'gluon.html.BODY'>, 'BR': <class 'gluon.html.BR'>, 'BUTTON': <class 'gluon.html.BUTTON'>, 'CAT': <class 'gluon.html.CAT'>, 'CENTER': <class 'gluon.html.CENTER'>, ...}, layer='/home/cpnogueira/web2py/applications/tcc/controllers/default.py')"
p84
sS'func'
p85
S'restricted'
p86
sa(dp87
g62
S'/home/cpnogueira/web2py/applications/tcc/controllers/default.py'
p88
sg64
(dp89
sg70
I152
sg71
(dp90
I141
S'    if simulation_form.validate():'
p91
sI142
S'        "payload = {\'name\':alg_form.vars.name, \'description\':alg_form.vars.description}"'
p92
sI143
S'        """r = requests.post("http://127.0.0.1:8000/webpricer/default/api/algorithm.json", data=payload)"""'
p93
sI144
S'        # TODO:redirects based in whatever.'
p94
sI145
S'    elif simulation_form.errors:'
p95
sI146
S"        response.flash = T('Please check for errors on form!')"
p96
sI147
S'    else:'
p97
sI148
S"        response.flash = T('Please fill the form')"
p98
sI149
S''
sI150
S'    return dict(simulation_form=simulation_form, working_nd=working_nd)'
p99
ssg83
S'()'
p100
sg85
S'<module>'
p101
sa(dp102
g62
S'/home/cpnogueira/web2py/gluon/globals.py'
p103
sg64
(dp104
S'self'
p105
S'undefined'
p106
sS'f'
S'<function add_simulation_from_benchmark>'
p107
ssg70
I372
sg71
(dp108
I367
S'        self.menu = []             # used by the default view layout'
p109
sI368
S'        self.files = []            # used by web2py_ajax.html'
p110
sI369
S'        self.generic_patterns = []  # patterns to allow generic views'
p111
sI370
S"        self.delimiters = ('{{', '}}')"
p112
sI371
S'        self._vars = None'
p113
sI372
S'        self._caller = lambda f: f()'
p114
sI373
S'        self._view_environment = None'
p115
sI374
S'        self._custom_commit = None'
p116
sI375
S'        self._custom_rollback = None'
p117
sI376
S''
ssg83
S'(f=<function add_simulation_from_benchmark>)'
p118
sg85
S'<lambda>'
p119
sa(dp120
g62
S'/home/cpnogueira/web2py/applications/tcc/controllers/default.py'
p121
sg64
(dp122
S'simulation_form.validate'
p123
S'<bound method SQLFORM.validate of <gluon.sqlhtml.SQLFORM object>>'
p124
sS'simulation_form'
p125
S'<gluon.sqlhtml.SQLFORM object>'
p126
ssg70
I141
sg71
(dp127
I136
S"                                      Field('final_level','integer',default=16, requires=IS_EXPR('int(value)>0')),"
p128
sI137
S"                                      Field('reference_price','double',requires=IS_EXPR('double(value)>0')),"
p129
sI138
S"                                      Field('price_precision','double',requires=IS_EXPR('double(value)>0')),"
p130
sI139
S"                                      Field('available_resources', 'boolean', requires=IS_IN_SET(working_nd, multiple=True), widget=SQLFORM.widgets.checkboxes.widget)"
p131
sI140
S'                                      )'
p132
sI141
S'    if simulation_form.validate():'
p133
sI142
S'        "payload = {\'name\':alg_form.vars.name, \'description\':alg_form.vars.description}"'
p134
sI143
S'        """r = requests.post("http://127.0.0.1:8000/webpricer/default/api/algorithm.json", data=payload)"""'
p135
sI144
S'        # TODO:redirects based in whatever.'
p136
sI145
S'    elif simulation_form.errors:'
p137
ssg83
S'()'
p138
sg85
S'add_simulation_from_benchmark'
p139
sa(dp140
g62
S'/home/cpnogueira/web2py/gluon/html.py'
p141
sg64
(dp142
S'self'
p143
S'<gluon.sqlhtml.SQLFORM object>'
p144
sS'self.accepts'
p145
S'<bound method SQLFORM.accepts of <gluon.sqlhtml.SQLFORM object>>'
p146
sS'kwargs'
p147
S"{'dbio': False, 'request_vars': <Storage {'available_resources': '1', 'reference...2-ecf94ebd6d4c', '_formname': 'no_table/create'}>, 'session': <Storage {'_formkey[market_parameters/create]': ...c95bf', 'b4bfcf44-3e5e-4129-b564-f679a99d7f88']}>}"
p148
ssg70
I2154
sg71
(dp149
I2149
S"        for key in ('message_onsuccess', 'message_onfailure', 'onsuccess',"
p150
sI2150
S"                    'onfailure', 'next', 'message_onchange', 'onchange'):"
p151
sI2151
S'            if key in kwargs:'
p152
sI2152
S'                del kwargs[key]'
p153
sI2153
S''
sI2154
S'        if self.accepts(**kwargs):'
p154
sI2155
S"            if onsuccess == 'flash':"
p155
sI2156
S'                if next:'
p156
sI2157
S'                    current.session.flash = message_onsuccess'
p157
sI2158
S'                else:'
p158
ssg83
S"(self=<gluon.sqlhtml.SQLFORM object>, **kwargs={'dbio': False, 'request_vars': <Storage {'available_resources': '1', 'reference...2-ecf94ebd6d4c', '_formname': 'no_table/create'}>, 'session': <Storage {'_formkey[market_parameters/create]': ...c95bf', 'b4bfcf44-3e5e-4129-b564-f679a99d7f88']}>})"
p159
sg85
S'validate'
p160
sa(dp161
g62
S'/home/cpnogueira/web2py/gluon/sqlhtml.py'
p162
sg64
(dp163
S'kwargs'
p164
g45
ssg70
I1375
sg71
(dp165
I1376
S'        )'
p166
sI1377
S''
sI1378
S'        self.deleted = \\'
p167
sI1379
S'            request_vars.get(self.FIELDNAME_REQUEST_DELETE, False)'
p168
sI1370
S'            session,'
p169
sI1371
S'            formname,'
p170
sI1372
S'            keepvalues,'
p171
sI1373
S'            onvalidation,'
p172
sI1374
S'            hideerror=hideerror,'
p173
sI1375
S'            **kwargs'
p174
ssg83
S"(self=<gluon.sqlhtml.SQLFORM object>, request_vars=<Storage {'available_resources': '1', 'reference...2-ecf94ebd6d4c', '_formname': 'no_table/create'}>, session=<Storage {'_formkey[market_parameters/create]': ...c95bf', 'b4bfcf44-3e5e-4129-b564-f679a99d7f88']}>, formname='no_table/create', keepvalues=False, onvalidation=None, dbio=False, hideerror=False, detect_record_change=False, **kwargs={})"
p175
sg85
S'accepts'
p176
sa(dp177
g62
S'/home/cpnogueira/web2py/gluon/html.py'
p178
sg64
(dp179
S'status'
p180
S'True'
p181
sS'self'
p182
S'<gluon.sqlhtml.SQLFORM object>'
p183
sS'self._traverse'
p184
S'<bound method SQLFORM._traverse of <gluon.sqlhtml.SQLFORM object>>'
p185
sS'hideerror'
p186
S'False'
p187
ssg70
I2035
sg71
(dp188
I2030
S'        if status and session:'
p189
sI2031
S'            # check if editing a record that has been modified by the server'
p190
sI2032
S"            if hasattr(self, 'record_hash') and self.record_hash != formkey:"
p191
sI2033
S'                status = False'
p192
sI2034
S'                self.record_changed = changed = True'
p193
sI2035
S'        status = self._traverse(status, hideerror)'
p194
sI2036
S'        status = self.assert_status(status, request_vars)'
p195
sI2037
S'        if onvalidation:'
p196
sI2038
S'            if isinstance(onvalidation, dict):'
p197
sI2039
S"                onsuccess = onvalidation.get('onsuccess', None)"
p198
ssg83
S"(self=<gluon.sqlhtml.SQLFORM object>, request_vars=<Storage {'available_resources': '1', 'reference...2-ecf94ebd6d4c', 'benchmark_set': 'Benchmark 2'}>, session=<Storage {'_formkey[market_parameters/create]': ...c95bf', 'b4bfcf44-3e5e-4129-b564-f679a99d7f88']}>, formname='no_table/create', keepvalues=False, onvalidation=None, hideerror=False, **kwargs={})"
p199
sg85
g176
sa(dp200
g62
S'/home/cpnogueira/web2py/gluon/html.py'
p201
sg64
(dp202
S'status'
p203
g181
sS'newstatus'
p204
g181
sS'c'
S'<gluon.html.TABLE object>'
p205
sS'hideerror'
p206
g187
sS'c._traverse'
p207
S'<bound method TABLE._traverse of <gluon.html.TABLE object>>'
p208
ssg70
I846
sg71
(dp209
I841
S'                c.latest = self.latest'
p210
sI842
S'                c.session = self.session'
p211
sI843
S'                c.formname = self.formname'
p212
sI844
S"                if not c.attributes.get('hideerror'):"
p213
sI845
S"                    c['hideerror'] = hideerror or self.attributes.get('hideerror')"
p214
sI846
S'                newstatus = c._traverse(status, hideerror) and newstatus'
p215
sI847
S''
sI848
S'        # for input, textarea, select, option'
p216
sI849
S"        # deal with 'value' and 'validation'"
p217
sI850
S''
ssg83
S'(self=<gluon.sqlhtml.SQLFORM object>, status=True, hideerror=False)'
p218
sg85
S'_traverse'
p219
sa(dp220
g62
S'/home/cpnogueira/web2py/gluon/html.py'
p221
sg64
(dp222
S'status'
p223
g181
sS'newstatus'
p224
g181
sS'c'
S'<gluon.html.TR object>'
p225
sS'hideerror'
p226
g187
sS'c._traverse'
p227
S'<bound method TR._traverse of <gluon.html.TR object>>'
p228
ssg70
I846
sg71
(dp229
I841
S'                c.latest = self.latest'
p230
sI842
S'                c.session = self.session'
p231
sI843
S'                c.formname = self.formname'
p232
sI844
S"                if not c.attributes.get('hideerror'):"
p233
sI845
S"                    c['hideerror'] = hideerror or self.attributes.get('hideerror')"
p234
sI846
S'                newstatus = c._traverse(status, hideerror) and newstatus'
p235
sI847
S''
sI848
S'        # for input, textarea, select, option'
p236
sI849
S"        # deal with 'value' and 'validation'"
p237
sI850
S''
ssg83
S'(self=<gluon.html.TABLE object>, status=True, hideerror=False)'
p238
sg85
g219
sa(dp239
g62
S'/home/cpnogueira/web2py/gluon/html.py'
p240
sg64
(dp241
S'status'
p242
g181
sS'newstatus'
p243
g181
sS'c'
S'<gluon.html.TD object>'
p244
sS'hideerror'
p245
g187
sS'c._traverse'
p246
S'<bound method TD._traverse of <gluon.html.TD object>>'
p247
ssg70
I846
sg71
(dp248
I841
S'                c.latest = self.latest'
p249
sI842
S'                c.session = self.session'
p250
sI843
S'                c.formname = self.formname'
p251
sI844
S"                if not c.attributes.get('hideerror'):"
p252
sI845
S"                    c['hideerror'] = hideerror or self.attributes.get('hideerror')"
p253
sI846
S'                newstatus = c._traverse(status, hideerror) and newstatus'
p254
sI847
S''
sI848
S'        # for input, textarea, select, option'
p255
sI849
S"        # deal with 'value' and 'validation'"
p256
sI850
S''
ssg83
S'(self=<gluon.html.TR object>, status=True, hideerror=False)'
p257
sg85
g219
sa(dp258
g62
S'/home/cpnogueira/web2py/gluon/html.py'
p259
sg64
(dp260
S'status'
p261
g181
sS'newstatus'
p262
g181
sS'c'
S'<gluon.html.INPUT object>'
p263
sS'hideerror'
p264
g187
sS'c._traverse'
p265
S'<bound method INPUT._traverse of <gluon.html.INPUT object>>'
p266
ssg70
I846
sg71
(dp267
I841
S'                c.latest = self.latest'
p268
sI842
S'                c.session = self.session'
p269
sI843
S'                c.formname = self.formname'
p270
sI844
S"                if not c.attributes.get('hideerror'):"
p271
sI845
S"                    c['hideerror'] = hideerror or self.attributes.get('hideerror')"
p272
sI846
S'                newstatus = c._traverse(status, hideerror) and newstatus'
p273
sI847
S''
sI848
S'        # for input, textarea, select, option'
p274
sI849
S"        # deal with 'value' and 'validation'"
p275
sI850
S''
ssg83
S'(self=<gluon.html.TD object>, status=True, hideerror=False)'
p276
sg85
g219
sa(dp277
g62
S'/home/cpnogueira/web2py/gluon/html.py'
p278
sg64
(dp279
S'newstatus'
p280
g181
sS'self'
p281
S'<gluon.html.INPUT object>'
p282
sS'self._validate'
p283
S'<bound method INPUT._validate of <gluon.html.INPUT object>>'
p284
ssg70
I853
sg71
(dp285
I848
S'        # for input, textarea, select, option'
p286
sI849
S"        # deal with 'value' and 'validation'"
p287
sI850
S''
sI851
S"        name = self['_name']"
p288
sI852
S'        if newstatus:'
p289
sI853
S'            newstatus = self._validate()'
p290
sI854
S'            self._postprocessing()'
p291
sI855
S"        elif 'old_value' in self.attributes:"
p292
sI856
S"            self['value'] = self['old_value']"
p293
sI857
S'            self._postprocessing()'
p294
ssg83
S'(self=<gluon.html.INPUT object>, status=True, hideerror=False)'
p295
sg85
g219
sa(dp296
g62
S'/home/cpnogueira/web2py/gluon/html.py'
p297
sg64
(dp298
S'errors'
p299
g106
sS'value'
p300
S"'-9'"
p301
sS'validator'
p302
S'<gluon.validators.IS_EXPR object>'
p303
ssg70
I1780
sg71
(dp304
I1775
S"        requires = self['requires']"
p305
sI1776
S'        if requires:'
p306
sI1777
S'            if not isinstance(requires, (list, tuple)):'
p307
sI1778
S'                requires = [requires]'
p308
sI1779
S'            for validator in requires:'
p309
sI1780
S'                (value, errors) = validator(value)'
p310
sI1781
S'                if not errors is None:'
p311
sI1782
S'                    self.vars[name] = value'
p312
sI1783
S'                    self.errors[name] = errors'
p313
sI1784
S'                    break'
p314
ssg83
S'(self=<gluon.html.INPUT object>)'
p315
sg85
S'_validate'
p316
sa(dp317
g62
S'/home/cpnogueira/web2py/gluon/validators.py'
p318
sg64
(dp319
S'self'
p320
S'<gluon.validators.IS_EXPR object>'
p321
sS'self.expression'
p322
S"'double(value)>0'"
p323
sS'self.environment'
p324
S"{'__builtins__': {'ArithmeticError': <type 'exceptions.ArithmeticError'>, 'AssertionError': <type 'exceptions.AssertionError'>, 'AttributeError': <type 'exceptions.AttributeError'>, 'BaseException': <type 'exceptions.BaseException'>, 'BufferError': <type 'exceptions.BufferError'>, 'BytesWarning': <type 'exceptions.BytesWarning'>, 'DeprecationWarning': <type 'exceptions.DeprecationWarning'>, 'EOFError': <type 'exceptions.EOFError'>, 'Ellipsis': Ellipsis, 'EnvironmentError': <type 'exceptions.EnvironmentError'>, ...}, 'value': '-9'}"
p325
ssg70
I261
sg71
(dp326
I256
S'    def __call__(self, value):'
p327
sI257
S'        if callable(self.expression):'
p328
sI258
S'            return (value, self.expression(value))'
p329
sI259
S'        # for backward compatibility'
p330
sI260
S'        self.environment.update(value=value)'
p331
sI261
S"        exec '__ret__=' + self.expression in self.environment"
p332
sI262
S"        if self.environment['__ret__']:"
p333
sI263
S'            return (value, None)'
p334
sI264
S'        return (value, translate(self.error_message))'
p335
sI265
S''
ssg83
S"(self=<gluon.validators.IS_EXPR object>, value='-9')"
p336
sg85
S'__call__'
p337
sa(dp338
g62
S'/home/cpnogueira/web2py/<string>'
p339
sg64
(dp340
sg70
I1
sg71
(dp341
sg83
S'()'
p342
sg85
g101
sasS'pyver'
p343
S'Python 2.7.4: /usr/bin/python (prefix: /usr)'
p344
sS'session'
p345
g57
(S's?\x01\x00\x00<div><table><tr><td style="font-weight:bold;vertical-align:top;">last_orderby</td><td style="vertical-align:top;">:</td><td><div>None</div></td></tr><tr><td style="font-weight:bold;vertical-align:top;">last_query</td><td style="vertical-align:top;">:</td><td><div>db.scheduler_worker.id==2</div></td></tr></table></div>'
tRp346
sS'etype'
p347
S"<type 'exceptions.NameError'>"
p348
sS'date'
p349
S'Sat Jun 28 19:54:51 2014'
p350
sS'response'
p351
g57
(S's&2\x00\x00<div><table><tr><td style="font-weight:bold;vertical-align:top;">body</td><td style="vertical-align:top;">:</td><td><div>&lt;cStringIO.StringO object at 0x7f6a54563ca8&gt;</div></td></tr><tr><td style="font-weight:bold;vertical-align:top;">cookies</td><td style="vertical-align:top;">:</td><td><div><table><tr><td style="font-weight:bold;vertical-align:top;">session_id_tcc</td><td style="vertical-align:top;">:</td><td><div>127.0.0.1-7d692b1c-078d-4cf9-b02b-11b4ba5919a7<table><tr><td style="font-weight:bold;vertical-align:top;">comment</td><td style="vertical-align:top;">:</td><td><div></div></td></tr><tr><td style="font-weight:bold;vertical-align:top;">domain</td><td style="vertical-align:top;">:</td><td><div></div></td></tr><tr><td style="font-weight:bold;vertical-align:top;">expires</td><td style="vertical-align:top;">:</td><td><div></div></td></tr><tr><td style="font-weight:bold;vertical-align:top;">httponly</td><td style="vertical-align:top;">:</td><td><div></div></td></tr><tr><td style="font-weight:bold;vertical-align:top;">max-age</td><td style="vertical-align:top;">:</td><td><div></div></td></tr><tr><td style="font-weight:bold;vertical-align:top;">path</td><td style="vertical-align:top;">:</td><td><div>/</div></td></tr><tr><td style="font-weight:bold;vertical-align:top;">secure</td><td style="vertical-align:top;">:</td><td><div></div></td></tr><tr><td style="font-weight:bold;vertical-align:top;">version</td><td style="vertical-align:top;">:</td><td><div></div></td></tr></table></div></td></tr></table></div></td></tr><tr><td style="font-weight:bold;vertical-align:top;">delimiters</td><td style="vertical-align:top;">:</td><td><div><table><tr><td><div>{{</div></td></tr><tr><td><div>}}</div></td></tr></table></div></td></tr><tr><td style="font-weight:bold;vertical-align:top;">files</td><td style="vertical-align:top;">:</td><td><div><table></table></div></td></tr><tr><td style="font-weight:bold;vertical-align:top;">flash</td><td style="vertical-align:top;">:</td><td><div></div></td></tr><tr><td style="font-weight:bold;vertical-align:top;">generic_patterns</td><td style="vertical-align:top;">:</td><td><div><table><tr><td><div>*</div></td></tr></table></div></td></tr><tr><td style="font-weight:bold;vertical-align:top;">google_analytics_id</td><td style="vertical-align:top;">:</td><td><div>None</div></td></tr><tr><td style="font-weight:bold;vertical-align:top;">headers</td><td style="vertical-align:top;">:</td><td><div><table><tr><td style="font-weight:bold;vertical-align:top;">X-Powered-By</td><td style="vertical-align:top;">:</td><td><div>web2py</div></td></tr></table></div></td></tr><tr><td style="font-weight:bold;vertical-align:top;">logo</td><td style="vertical-align:top;">:</td><td><div><a class="brand" data-w2p_disable_with="default" href="http://www.web2py.com/"><b>web<span>2</span>py</b>&trade;&nbsp;</a></div></td></tr><tr><td style="font-weight:bold;vertical-align:top;">menu</td><td style="vertical-align:top;">:</td><td><div><table><tr><td><div><table><tr><td><div>Home</div></td></tr><tr><td><div>False</div></td></tr><tr><td><div>/tcc/default/index</div></td></tr><tr><td><div><table></table></div></td></tr></table></div></td></tr><tr><td><div><table><tr><td><div><span class="highlighted">web2py</span></div></td></tr><tr><td><div>False</div></td></tr><tr><td><div>http://web2py.com</div></td></tr><tr><td><div><table><tr><td><div><table><tr><td><div>My Sites</div></td></tr><tr><td><div>False</div></td></tr><tr><td><div>/admin/default/site</div></td></tr></table></div></td></tr><tr><td><div><table><tr><td><div>This App</div></td></tr><tr><td><div>False</div></td></tr><tr><td><div>/admin/default/design/tcc</div></td></tr><tr><td><div>[(&lt;lazyT &#x27;Controller&#x27;&gt;, False, &#x27;/admin/default/edit/tcc/controllers/default.py&#x27;), (&lt;lazyT &#x27;View&#x27;&gt;, False, &#x27;/admin/default/edit/tcc/views/default/add_simulation_from_benchmark.html&#x27;), (&lt;lazyT &#x27;Layout&#x27;&gt;, False, &#x27;/admin/default/edit/tcc/views/layout.html&#x27;), (&lt;lazyT &#x27;Stylesheet&#x27;&gt;, False, &#x27;/admin/default/edit/tcc/static/css/web2py.css&#x27;), (&lt;lazyT &#x27;DB Model&#x27;&gt;, False, &#x27;/admin/default/edit/tcc/models/db.py&#x27;), (&lt;lazyT &#x27;Menu Model&#x27;&gt;, False, &#x27;/admin/default/edit/tcc/models/menu.py&#x27;), (&lt;lazyT &#x27;Database&#x27;&gt;, False, &#x27;/tcc/appadmin/index&#x27;), (&lt;lazyT &#x27;Errors&#x27;&gt;, False, &#x27;/admin/default/errors/tcc&#x27;), (&lt;lazyT &#x27;About&#x27;&gt;, False, &#x27;/admin/default/about/tcc&#x27;)]</div></td></tr></table></div></td></tr><tr><td><div><table><tr><td><div>web2py.com</div></td></tr><tr><td><div>False</div></td></tr><tr><td><div>http://www.web2py.com</div></td></tr><tr><td><div>[(&lt;lazyT &#x27;Download&#x27;&gt;, False, &#x27;http://www.web2py.com/examples/default/download&#x27;), (&lt;lazyT &#x27;Support&#x27;&gt;, False, &#x27;http://www.web2py.com/examples/default/support&#x27;), (&lt;lazyT &#x27;Demo&#x27;&gt;, False, &#x27;http://web2py.com/demo_admin&#x27;), (&lt;lazyT &#x27;Quick Examples&#x27;&gt;, False, &#x27;http://web2py.com/examples/default/examples&#x27;), (&lt;lazyT &#x27;FAQ&#x27;&gt;, False, &#x27;http://web2py.com/AlterEgo&#x27;), (&lt;lazyT &#x27;Videos&#x27;&gt;, False, &#x27;http://www.web2py.com/examples/default/videos/&#x27;), (&lt;lazyT &#x27;Free Applications&#x27;&gt;, False, &#x27;http://web2py.com/appliances&#x27;), (&lt;lazyT &#x27;Plugins&#x27;&gt;, False, &#x27;http://web2py.com/plugins&#x27;), (&lt;lazyT &#x27;Layouts&#x27;&gt;, False, &#x27;http://web2py.com/layouts&#x27;), (&lt;lazyT &#x27;Recipes&#x27;&gt;, False, &#x27;http://web2pyslices.com/&#x27;), (&lt;lazyT &#x27;Semantic&#x27;&gt;, False, &#x27;http://web2py.com/semantic&#x27;)]</div></td></tr></table></div></td></tr><tr><td><div><table><tr><td><div>Documentation</div></td></tr><tr><td><div>False</div></td></tr><tr><td><div>http://www.web2py.com/book</div></td></tr><tr><td><div>[(&lt;lazyT &#x27;Preface&#x27;&gt;, False, &#x27;http://www.web2py.com/book/default/chapter/00&#x27;), (&lt;lazyT &#x27;Introduction&#x27;&gt;, False, &#x27;http://www.web2py.com/book/default/chapter/01&#x27;), (&lt;lazyT &#x27;Python&#x27;&gt;, False, &#x27;http://www.web2py.com/book/default/chapter/02&#x27;), (&lt;lazyT &#x27;Overview&#x27;&gt;, False, &#x27;http://www.web2py.com/book/default/chapter/03&#x27;), (&lt;lazyT &#x27;The Core&#x27;&gt;, False, &#x27;http://www.web2py.com/book/default/chapter/04&#x27;), (&lt;lazyT &#x27;The Views&#x27;&gt;, False, &#x27;http://www.web2py.com/book/default/chapter/05&#x27;), (&lt;lazyT &#x27;Database&#x27;&gt;, False, &#x27;http://www.web2py.com/book/default/chapter/06&#x27;), (&lt;lazyT &#x27;Forms and Validators&#x27;&gt;, False, &#x27;http://www.web2py.com/book/default/chapter/07&#x27;), (&lt;lazyT &#x27;Email and SMS&#x27;&gt;, False, &#x27;http://www.web2py.com/book/default/chapter/08&#x27;), (&lt;lazyT &#x27;Access Control&#x27;&gt;, False, &#x27;http://www.web2py.com/book/default/chapter/09&#x27;), (&lt;lazyT &#x27;Services&#x27;&gt;, False, &#x27;http://www.web2py.com/book/default/chapter/10&#x27;), (&lt;lazyT &#x27;Ajax Recipes&#x27;&gt;, False, &#x27;http://www.web2py.com/book/default/chapter/11&#x27;), (&lt;lazyT &#x27;Components and Plugins&#x27;&gt;, False, &#x27;http://www.web2py.com/book/default/chapter/12&#x27;), (&lt;lazyT &#x27;Deployment Recipes&#x27;&gt;, False, &#x27;http://www.web2py.com/book/default/chapter/13&#x27;), (&lt;lazyT &#x27;Other Recipes&#x27;&gt;, False, &#x27;http://www.web2py.com/book/default/chapter/14&#x27;), (&lt;lazyT &#x27;Buy this book&#x27;&gt;, False, &#x27;http://stores.lulu.com/web2py&#x27;)]</div></td></tr></table></div></td></tr><tr><td><div><table><tr><td><div>Community</div></td></tr><tr><td><div>False</div></td></tr><tr><td><div>None</div></td></tr><tr><td><div>[(&lt;lazyT &#x27;Groups&#x27;&gt;, False, &#x27;http://www.web2py.com/examples/default/usergroups&#x27;), (&lt;lazyT &#x27;Twitter&#x27;&gt;, False, &#x27;http://twitter.com/web2py&#x27;), (&lt;lazyT &#x27;Live Chat&#x27;&gt;, False, &#x27;http://webchat.freenode.net/?channels=web2py&#x27;)]</div></td></tr></table></div></td></tr><tr><td><div><table><tr><td><div>Plugins</div></td></tr><tr><td><div>False</div></td></tr><tr><td><div>None</div></td></tr><tr><td><div>[(&#x27;plugin_wiki&#x27;, False, &#x27;http://web2py.com/examples/default/download&#x27;), (&lt;lazyT &#x27;Other Plugins&#x27;&gt;, False, &#x27;http://web2py.com/plugins&#x27;), (&lt;lazyT &#x27;Layout Plugins&#x27;&gt;, False, &#x27;http://web2py.com/layouts&#x27;)]</div></td></tr></table></div></td></tr></table></div></td></tr></table></div></td></tr></table></div></td></tr><tr><td style="font-weight:bold;vertical-align:top;">meta</td><td style="vertical-align:top;">:</td><td><div><table><tr><td style="font-weight:bold;vertical-align:top;">author</td><td style="vertical-align:top;">:</td><td><div>Your Name &lt;you@example.com&gt;</div></td></tr><tr><td style="font-weight:bold;vertical-align:top;">description</td><td style="vertical-align:top;">:</td><td><div>a cool new app</div></td></tr><tr><td style="font-weight:bold;vertical-align:top;">generator</td><td style="vertical-align:top;">:</td><td><div>Web2py Web Framework</div></td></tr><tr><td style="font-weight:bold;vertical-align:top;">keywords</td><td style="vertical-align:top;">:</td><td><div>web2py, python, framework</div></td></tr></table></div></td></tr><tr><td style="font-weight:bold;vertical-align:top;">models_to_run</td><td style="vertical-align:top;">:</td><td><div><table><tr><td><div>^\\w+\\.py$</div></td></tr><tr><td><div>^default/\\w+\\.py$</div></td></tr><tr><td><div>^default/add_simulation_from_benchmark/\\w+\\.py$</div></td></tr></table></div></td></tr><tr><td style="font-weight:bold;vertical-align:top;">postprocessing</td><td style="vertical-align:top;">:</td><td><div><table></table></div></td></tr><tr><td style="font-weight:bold;vertical-align:top;">session_client</td><td style="vertical-align:top;">:</td><td><div>127.0.0.1</div></td></tr><tr><td style="font-weight:bold;vertical-align:top;">session_cookie_compression_level</td><td style="vertical-align:top;">:</td><td><div>None</div></td></tr><tr><td style="font-weight:bold;vertical-align:top;">session_cookie_expires</td><td style="vertical-align:top;">:</td><td><div>None</div></td></tr><tr><td style="font-weight:bold;vertical-align:top;">session_cookie_key</td><td style="vertical-align:top;">:</td><td><div>None</div></td></tr><tr><td style="font-weight:bold;vertical-align:top;">session_data_name</td><td style="vertical-align:top;">:</td><td><div>session_data_tcc</div></td></tr><tr><td style="font-weight:bold;vertical-align:top;">session_file</td><td style="vertical-align:top;">:</td><td><div>&lt;open file &#x27;/home/cpnogueira/web2py/applications/tcc/sessions/127.0.0.1-7d692b1c-078d-4cf9-b02b-11b4ba5919a7&#x27;, mode &#x27;rb+&#x27; at 0x7f6a5c7bbb70&gt;</div></td></tr><tr><td style="font-weight:bold;vertical-align:top;">session_filename</td><td style="vertical-align:top;">:</td><td><div>/home/cpnogueira/web2py/applications/tcc/sessions/127.0.0.1-7d692b1c-078d-4cf9-b02b-11b4ba5919a7</div></td></tr><tr><td style="font-weight:bold;vertical-align:top;">session_hash</td><td style="vertical-align:top;">:</td><td><div>789c2fabd0fa739af8f41b57112e470e</div></td></tr><tr><td style="font-weight:bold;vertical-align:top;">session_id</td><td style="vertical-align:top;">:</td><td><div>127.0.0.1-7d692b1c-078d-4cf9-b02b-11b4ba5919a7</div></td></tr><tr><td style="font-weight:bold;vertical-align:top;">session_id_name</td><td style="vertical-align:top;">:</td><td><div>session_id_tcc</div></td></tr><tr><td style="font-weight:bold;vertical-align:top;">session_locked</td><td style="vertical-align:top;">:</td><td><div>True</div></td></tr><tr><td style="font-weight:bold;vertical-align:top;">session_masterapp</td><td style="vertical-align:top;">:</td><td><div>tcc</div></td></tr><tr><td style="font-weight:bold;vertical-align:top;">session_new</td><td style="vertical-align:top;">:</td><td><div>False</div></td></tr><tr><td style="font-weight:bold;vertical-align:top;">session_storage_type</td><td style="vertical-align:top;">:</td><td><div>file</div></td></tr><tr><td style="font-weight:bold;vertical-align:top;">status</td><td style="vertical-align:top;">:</td><td><div>200</div></td></tr><tr><td style="font-weight:bold;vertical-align:top;">subtitle</td><td style="vertical-align:top;">:</td><td><div></div></td></tr><tr><td style="font-weight:bold;vertical-align:top;">title</td><td style="vertical-align:top;">:</td><td><div>Tcc</div></td></tr><tr><td style="font-weight:bold;vertical-align:top;">view</td><td style="vertical-align:top;">:</td><td><div>default/add_simulation_from_benchmark.html</div></td></tr></table></div>'
tRp352
sS'locals'
p353
(dp354
S'__builtins__'
p355
S"{'ArithmeticError': <type 'exceptions.ArithmeticError'>, 'AssertionError': <type 'exceptions.AssertionError'>, 'AttributeError': <type 'exceptions.AttributeError'>, 'BaseException': <type 'exceptions.BaseException'>, 'BufferError': <type 'exceptions.BufferError'>, 'BytesWarning': <type 'exceptions.BytesWarning'>, 'DeprecationWarning': <type 'exceptions.DeprecationWarning'>, 'EOFError': <type 'exceptions.EOFError'>, 'Ellipsis': Ellipsis, 'EnvironmentError': <type 'exceptions.EnvironmentError'>, ...}"
p356
sS'value'
p357
S"'-9'"
p358
sssS'traceback'
p359
S'Traceback (most recent call last):\n  File "/home/cpnogueira/web2py/gluon/restricted.py", line 217, in restricted\n    exec ccode in environment\n  File "/home/cpnogueira/web2py/applications/tcc/controllers/default.py", line 152, in <module>\n  File "/home/cpnogueira/web2py/gluon/globals.py", line 372, in <lambda>\n    self._caller = lambda f: f()\n  File "/home/cpnogueira/web2py/applications/tcc/controllers/default.py", line 141, in add_simulation_from_benchmark\n    if simulation_form.validate():\n  File "/home/cpnogueira/web2py/gluon/html.py", line 2154, in validate\n    if self.accepts(**kwargs):\n  File "/home/cpnogueira/web2py/gluon/sqlhtml.py", line 1375, in accepts\n    **kwargs\n  File "/home/cpnogueira/web2py/gluon/html.py", line 2035, in accepts\n    status = self._traverse(status, hideerror)\n  File "/home/cpnogueira/web2py/gluon/html.py", line 846, in _traverse\n    newstatus = c._traverse(status, hideerror) and newstatus\n  File "/home/cpnogueira/web2py/gluon/html.py", line 846, in _traverse\n    newstatus = c._traverse(status, hideerror) and newstatus\n  File "/home/cpnogueira/web2py/gluon/html.py", line 846, in _traverse\n    newstatus = c._traverse(status, hideerror) and newstatus\n  File "/home/cpnogueira/web2py/gluon/html.py", line 846, in _traverse\n    newstatus = c._traverse(status, hideerror) and newstatus\n  File "/home/cpnogueira/web2py/gluon/html.py", line 853, in _traverse\n    newstatus = self._validate()\n  File "/home/cpnogueira/web2py/gluon/html.py", line 1780, in _validate\n    (value, errors) = validator(value)\n  File "/home/cpnogueira/web2py/gluon/validators.py", line 261, in __call__\n    exec \'__ret__=\' + self.expression in self.environment\n  File "<string>", line 1, in <module>\nNameError: name \'double\' is not defined\n'
p360
s.