(dp1
S'id'
p2
(dp3
S'sortable'
p4
I1
sS'sql'
p5
S'INT AUTO_INCREMENT NOT NULL'
p6
sS'length'
p7
I512
sS'notnull'
p8
I00
sS'unique'
p9
I00
sS'type'
p10
S'id'
p11
ssS'name'
p12
(dp13
S'length'
p14
I255
sS'unique'
p15
I01
sS'sortable'
p16
I2
sS'sql'
p17
S'VARCHAR(255) UNIQUE'
p18
sS'notnull'
p19
I00
sS'type'
p20
S'string'
p21
ssS'description'
p22
(dp23
g4
I3
sg5
S'LONGTEXT'
p24
sg7
I32768
sg8
I00
sg9
I00
sg10
S'text'
p25
ss.